Certificate:
    Data:
        Version: 3 (0x2)
        Serial Number: 9 (0x9)
        Signature Algorithm: sha1WithRSAEncryption
        Issuer: CN=hx509 Test Root CA, C=SE
        Validity
            Not Before: Sep 28 21:25:51 2022 GMT
            Not After : Jul 16 21:25:51 2036 GMT
        Subject: C=SE, CN=www.test.h5l.se
        Subject Public Key Info:
            Public Key Algorithm: rsaEncryption
                RSA Public-Key: (4096 bit)
                Modulus:
                    00:e4:10:21:34:1d:a4:c9:5d:86:80:b8:98:30:0b:
                    81:e6:9f:97:f5:f3:99:ce:9c:16:22:b7:6a:9d:e8:
                    42:3a:06:04:22:eb:0a:0d:bc:a0:88:46:39:9d:2e:
                    10:f2:f8:a2:7f:3d:43:63:23:dc:a6:d5:f4:fc:90:
                    24:e0:f4:07:68:9d:e5:29:66:8d:d9:40:27:8f:b9:
                    50:fe:fc:89:cf:91:cd:62:9e:af:67:38:fe:36:3d:
                    a0:ea:cd:2d:04:38:2f:5e:6e:51:03:55:3c:89:3f:
                    0d:d9:c6:f3:97:fd:4c:ed:ff:81:5e:1d:b4:f6:f0:
                    2b:6b:b7:ce:17:0f:bb:3d:ff:9c:31:ed:38:85:50:
                    f2:27:a1:4d:74:d5:1f:6b:68:5f:1e:ac:27:7c:9a:
                    00:cc:13:f1:72:98:8b:7a:3a:ba:f0:9e:b9:78:60:
                    fc:60:6c:81:8e:16:22:0c:1e:51:ea:10:02:17:b4:
                    6b:bc:26:5b:13:95:8b:42:db:a0:26:2a:c4:56:74:
                    76:00:bc:34:30:21:df:fb:3f:f0:f7:8b:96:38:bb:
                    20:c8:17:a5:79:c5:ec:04:c9:25:46:17:c9:2d:7f:
                    79:b9:fb:d2:f2:60:18:50:ca:d6:32:0f:b9:ec:21:
                    a0:94:52:02:1d:29:7b:8c:5a:b6:ea:18:8c:a6:d7:
                    52:57:2f:94:19:fc:6d:0c:a6:09:96:14:0b:8c:37:
                    89:7a:1f:55:cf:50:16:6f:f1:1c:d1:b9:a3:04:9b:
                    23:01:87:91:5b:6b:73:d3:a7:fb:7b:ed:ea:74:3d:
                    1b:da:ba:4b:e2:3b:66:01:96:fa:d3:b3:df:95:e9:
                    50:55:e0:e7:92:c3:65:3f:a4:b7:a5:3c:6f:0f:be:
                    33:c8:25:82:9a:9e:4b:4e:7e:8a:88:fd:a5:ff:d4:
                    32:f7:2d:ad:68:c7:9c:67:97:7d:13:58:6e:9d:b7:
                    7f:7b:16:61:63:0e:ff:bf:80:5f:86:9e:3f:b1:0b:
                    4d:43:87:9d:0d:9d:14:7e:66:31:d8:65:a3:8e:a4:
                    c0:71:db:83:48:08:26:90:52:3e:50:c0:da:70:32:
                    8f:06:8b:10:6e:4e:07:14:22:af:9f:dd:be:61:3e:
                    50:71:59:c0:d9:00:fd:a3:e2:c3:9f:fa:03:3b:8c:
                    a6:6e:52:c0:63:04:69:ce:fc:b4:7f:7f:95:c1:81:
                    2d:75:5c:47:2d:0a:11:82:ae:99:b9:93:e1:50:d2:
                    68:05:08:46:22:de:2e:20:e9:6b:fa:07:38:4a:51:
                    84:6b:e7:c2:5e:8c:6b:e2:bd:5b:f8:ea:67:64:45:
                    dc:3a:21:e2:23:16:81:e7:7a:a1:d2:d4:9d:98:76:
                    2d:a1:6f
                Exponent: 65537 (0x10001)
        X509v3 extensions:
            X509v3 Basic Constraints: 
                CA:FALSE
            X509v3 Key Usage: 
                Digital Signature, Non Repudiation, Key Encipherment
            X509v3 Subject Key Identifier: 
                63:4A:23:B7:1D:AC:B7:1D:49:28:B6:69:FB:FC:E0:16:B5:D8:50:BF
    Signature Algorithm: sha1WithRSAEncryption
         52:ec:f2:01:b3:b5:6f:1a:f9:ba:8b:50:b5:bc:ce:2e:ce:2e:
         18:83:bc:16:18:ba:f7:c2:51:a7:4e:40:20:6d:f0:8a:83:9d:
         f3:d7:44:f9:0a:44:db:f2:d4:3e:a0:2c:6b:00:4a:43:db:5f:
         e5:2d:e2:5f:45:a8:39:98:df:e1:6b:d4:b7:24:67:6c:25:e6:
         1a:b0:10:38:fc:1c:56:5d:be:4a:be:bd:e7:21:d8:e1:53:65:
         ef:c3:99:a6:59:cd:b9:bd:3c:ed:19:9c:c6:dd:97:09:3c:ae:
         b9:2a:d4:3e:3c:ec:d8:90:c6:eb:2a:88:1f:66:52:81:3f:03:
         a2:bd:08:a6:8d:d6:c1:87:a6:d5:91:8e:1d:6b:7f:3c:75:56:
         8f:93:32:fc:b8:a8:39:27:a7:af:75:df:57:7e:1c:60:56:cc:
         65:f4:f8:20:c4:40:ff:51:ac:af:56:c4:ab:3b:8f:34:02:5b:
         b5:ce:0f:ac:ba:5a:d4:ea:d0:a9:c8:78:12:95:9f:52:6a:18:
         dd:1a:3c:4d:18:b2:3f:8c:a5:40:8f:80:09:aa:a3:56:e6:cd:
         97:aa:04:6b:a1:48:b7:84:50:ae:94:12:b5:e0:28:be:cc:8f:
         4c:cb:bb:c6:c2:51:81:62:86:df:6e:76:74:da:fc:98:38:2a:
         94:4c:d6:1f:10:93:87:89:d8:57:02:a8:50:62:25:66:38:7f:
         04:46:eb:dc:22:51:4b:5e:06:4d:2b:3f:10:59:26:3f:f2:f6:
         86:27:a4:77:9f:89:27:44:f6:fa:71:9a:c9:5f:63:41:68:77:
         88:7a:c8:5d:64:40:c0:a4:22:3a:d1:49:6d:7a:1b:2d:c7:e4:
         0e:72:5a:5a:55:87:a1:21:8a:8d:42:e1:be:8b:41:1a:c8:7d:
         80:b4:fe:6e:18:8e:a8:74:81:9c:58:ee:ad:c7:41:54:e4:be:
         69:66:b9:40:db:28:ce:02:50:d8:f9:e3:5c:a8:10:25:92:de:
         f4:42:e6:6d:96:3c:8d:e1:c0:70:b7:bf:d8:20:2c:30:65:e6:
         d3:66:a9:79:a0:40:67:cd:fd:de:21:9d:72:47:5e:7e:e9:bd:
         7f:c3:c1:9f:78:af:2a:2d:95:f0:ef:9c:36:25:e2:d9:71:98:
         d4:9f:da:1e:f6:c8:9c:fd:8c:5d:c3:5e:f1:94:b8:22:12:a7:
         d9:d2:66:5f:72:9a:a2:6f:91:58:32:f7:17:e7:8e:c6:2f:15:
         a3:bd:a3:82:ba:89:73:18:53:6b:86:16:23:84:f1:a2:00:37:
         5a:b9:8c:8b:9f:5c:dd:86:20:9d:14:ff:86:0a:e9:ad:96:3b:
         9a:53:9e:61:00:97:bb:33
-----BEGIN CERTIFICATE-----
MIIFBTCCAu2gAwIBAgIBCTANBgkqhkiG9w0BAQUFADAqMRswGQYDVQQDDBJoeDUw
OSBUZXN0IFJvb3QgQ0ExCzAJBgNVBAYTAlNFMB4XDTIyMDkyODIxMjU1MVoXDTM2
MDcxNjIxMjU1MVowJzELMAkGA1UEBhMCU0UxGDAWBgNVBAMMD3d3dy50ZXN0Lmg1
bC5zZTCCAiIwDQYJKoZIhvcNAQEBBQADggIPADCCAgoCggIBAOQQITQdpMldhoC4
mDALgeafl/Xzmc6cFiK3ap3oQjoGBCLrCg28oIhGOZ0uEPL4on89Q2Mj3KbV9PyQ
JOD0B2id5SlmjdlAJ4+5UP78ic+RzWKer2c4/jY9oOrNLQQ4L15uUQNVPIk/DdnG
85f9TO3/gV4dtPbwK2u3zhcPuz3/nDHtOIVQ8iehTXTVH2toXx6sJ3yaAMwT8XKY
i3o6uvCeuXhg/GBsgY4WIgweUeoQAhe0a7wmWxOVi0LboCYqxFZ0dgC8NDAh3/s/
8PeLlji7IMgXpXnF7ATJJUYXyS1/ebn70vJgGFDK1jIPuewhoJRSAh0pe4xatuoY
jKbXUlcvlBn8bQymCZYUC4w3iXofVc9QFm/xHNG5owSbIwGHkVtrc9On+3vt6nQ9
G9q6S+I7ZgGW+tOz35XpUFXg55LDZT+kt6U8bw++M8glgpqeS05+ioj9pf/UMvct
rWjHnGeXfRNYbp23f3sWYWMO/7+AX4aeP7ELTUOHnQ2dFH5mMdhlo46kwHHbg0gI
JpBSPlDA2nAyjwaLEG5OBxQir5/dvmE+UHFZwNkA/aPiw5/6AzuMpm5SwGMEac78
tH9/lcGBLXVcRy0KEYKumbmT4VDSaAUIRiLeLiDpa/oHOEpRhGvnwl6Ma+K9W/jq
Z2RF3Doh4iMWged6odLUnZh2LaFvAgMBAAGjOTA3MAkGA1UdEwQCMAAwCwYDVR0P
BAQDAgXgMB0GA1UdDgQWBBRjSiO3Hay3HUkotmn7/OAWtdhQvzANBgkqhkiG9w0B
AQUFAAOCAgEAUuzyAbO1bxr5uotQtbzOLs4uGIO8Fhi698JRp05AIG3wioOd89dE
+QpE2/LUPqAsawBKQ9tf5S3iX0WoOZjf4WvUtyRnbCXmGrAQOPwcVl2+Sr695yHY
4VNl78OZplnNub087Rmcxt2XCTyuuSrUPjzs2JDG6yqIH2ZSgT8Dor0Ipo3WwYem
1ZGOHWt/PHVWj5My/LioOSenr3XfV34cYFbMZfT4IMRA/1Gsr1bEqzuPNAJbtc4P
rLpa1OrQqch4EpWfUmoY3Ro8TRiyP4ylQI+ACaqjVubNl6oEa6FIt4RQrpQSteAo
vsyPTMu7xsJRgWKG3252dNr8mDgqlEzWHxCTh4nYVwKoUGIlZjh/BEbr3CJRS14G
TSs/EFkmP/L2hiekd5+JJ0T2+nGayV9jQWh3iHrIXWRAwKQiOtFJbXobLcfkDnJa
WlWHoSGKjULhvotBGsh9gLT+bhiOqHSBnFjurcdBVOS+aWa5QNsozgJQ2PnjXKgQ
JZLe9ELmbZY8jeHAcLe/2CAsMGXm02apeaBAZ8393iGdckdefum9f8PBn3ivKi2V
8O+cNiXi2XGY1J/aHvbInP2MXcNe8ZS4IhKn2dJmX3Kaom+RWDL3F+eOxi8Vo72j
grqJcxhTa4YWI4TxogA3WrmMi59c3YYgnRT/hgrprZY7mlOeYQCXuzM=
-----END CERTIFICATE-----
