Certificate:
    Data:
        Version: 3 (0x2)
        Serial Number: 8 (0x8)
        Signature Algorithm: sha1WithRSAEncryption
        Issuer: CN=hx509 Test Root CA, C=SE
        Validity
            Not Before: Sep 28 21:25:51 2022 GMT
            Not After : Jul 16 21:25:51 2036 GMT
        Subject: C=SE, CN=kdc
        Subject Public Key Info:
            Public Key Algorithm: rsaEncryption
                RSA Public-Key: (4096 bit)
                Modulus:
                    00:c0:f0:16:98:d0:86:1b:fa:fb:66:98:55:48:0a:
                    96:c3:45:ae:bc:1a:45:95:8e:94:03:6c:a5:71:bc:
                    65:ea:92:4b:d5:99:6f:d8:cd:43:ac:83:74:fc:44:
                    37:48:34:3b:59:1d:5a:87:5c:68:51:56:1d:34:d5:
                    53:62:0d:82:97:0d:01:39:78:e8:0c:bc:b3:eb:00:
                    a2:bf:46:2d:03:2a:f4:d9:64:0f:c4:81:da:e9:b5:
                    44:dd:b5:32:af:88:c7:ed:17:33:42:c5:f6:fc:17:
                    96:5d:c2:49:93:66:0f:cc:0e:59:ea:b0:ab:19:d2:
                    24:82:0b:9f:61:6e:83:ac:e5:74:c0:38:38:38:ba:
                    78:ea:93:9c:f9:e5:1b:5a:dd:42:96:79:44:56:92:
                    ac:00:05:1c:ed:50:39:69:20:a9:54:ec:ed:6d:7b:
                    0a:cf:5f:91:f2:69:91:c1:52:31:74:d4:2f:bc:56:
                    4e:49:66:09:95:80:cf:12:ca:f0:1e:48:25:46:32:
                    15:ff:ac:28:fa:11:31:e8:5b:f8:34:f7:54:aa:f8:
                    a8:d2:8a:dc:a4:c1:46:1b:0b:84:a8:84:8d:02:42:
                    1a:a4:bf:35:87:dd:ae:0b:c1:58:8e:ed:e7:40:c2:
                    81:5a:8a:9a:9c:6a:c3:a5:ca:e0:ca:63:b7:26:3d:
                    eb:a3:90:b8:ef:84:49:59:d0:ba:40:f2:70:95:06:
                    b2:e4:36:c5:53:a6:d3:16:a8:b1:04:21:d5:39:47:
                    48:8d:16:8e:63:77:2e:e3:e6:c1:77:5b:21:fb:0f:
                    6a:1d:f0:f1:c8:b0:b7:69:c8:98:b6:f5:76:6e:d1:
                    05:a0:0a:fa:40:9c:dd:e9:fd:d1:cd:66:dd:96:17:
                    8b:73:90:ca:b1:8c:a0:94:7d:ce:fd:ef:7d:c7:d0:
                    41:e3:cc:f5:8b:4a:f6:32:13:00:a8:52:47:77:a0:
                    ca:bb:a2:51:0e:1c:ad:f5:ca:46:d0:54:ba:0a:3d:
                    d4:81:cb:f9:51:b3:d2:e0:88:00:1d:fb:be:17:e3:
                    26:76:6c:36:4f:fe:75:f8:22:d6:07:22:f5:81:69:
                    21:4b:3c:8e:ba:05:8d:9e:5e:36:98:dc:b0:8e:8a:
                    45:52:92:a1:d1:4f:2d:bf:9a:d5:94:5e:e6:b6:45:
                    de:ec:53:9e:52:37:30:10:85:d5:9b:76:31:93:38:
                    c7:af:0c:45:56:86:d3:0c:13:19:45:5d:d7:0f:3d:
                    b8:17:8f:24:f0:6f:72:4b:a2:f4:79:ba:aa:2c:78:
                    3e:3f:22:6f:55:21:d4:c2:98:4a:f6:36:46:80:d0:
                    01:ae:72:9c:4a:dc:a4:88:1a:59:ee:15:50:ee:b8:
                    69:0d:bd
                Exponent: 65537 (0x10001)
        X509v3 extensions:
            X509v3 Basic Constraints: 
                CA:FALSE
            X509v3 Key Usage: 
                Digital Signature, Non Repudiation, Key Encipherment
            X509v3 Extended Key Usage: 
                Signing KDC Response
            X509v3 Subject Key Identifier: 
                4C:E7:3D:1E:D3:69:6F:B5:1A:89:B3:24:B5:A8:41:66:F5:0F:CB:83
            X509v3 Subject Alternative Name: 
                othername:<unsupported>
    Signature Algorithm: sha1WithRSAEncryption
         ce:b8:77:ae:7f:57:4f:33:3e:1e:8a:41:f7:a7:e6:da:49:fc:
         3f:e5:7e:40:ea:e8:13:56:e8:8b:b1:42:d5:0e:c3:5b:1f:79:
         68:74:09:e0:82:eb:fb:84:a3:1a:e5:fc:97:f1:86:21:cf:c1:
         cb:ca:de:6a:75:23:ae:78:ad:9d:c7:dc:fa:e6:da:a9:92:96:
         e5:9c:6d:7f:ea:b5:42:28:11:fc:6f:58:00:ac:4d:5e:03:a5:
         32:ed:ec:b5:d8:32:e5:b7:3e:96:44:d9:4f:ec:e3:53:05:8f:
         67:e7:2e:5e:e4:41:6b:d7:18:e2:72:fd:2f:32:65:88:28:be:
         ea:7a:dd:6e:a9:9c:f8:b5:f5:52:58:0f:0e:b2:aa:1b:9e:7f:
         ef:e0:41:60:aa:65:c0:81:ad:11:ca:f9:8b:cd:bf:62:2f:93:
         23:58:63:cb:f6:38:d1:30:8f:ec:58:2f:70:63:32:7e:85:7b:
         70:c3:41:07:04:0f:9c:9d:5e:fe:10:7d:63:9d:c7:98:80:4a:
         74:4b:4d:f2:a5:88:dc:94:fa:44:ca:3e:04:5f:f9:e1:27:1d:
         f6:e0:d1:28:c1:62:d3:81:2d:00:55:76:ac:d0:d3:78:92:33:
         91:1f:09:56:5f:03:5f:e7:83:04:d3:7a:79:ce:50:6e:7b:dd:
         ea:20:5d:6e:35:8a:aa:75:de:fe:1d:5e:7e:1b:55:e0:96:32:
         ab:27:e3:99:07:5c:6f:0f:78:75:c5:a1:72:33:f7:d9:8d:fe:
         fb:78:93:f6:7f:49:78:d1:73:52:d7:cc:f3:e1:0f:f9:48:3d:
         7b:cc:db:ef:b3:0b:eb:8b:1f:aa:e9:bd:2c:66:fc:c9:c8:f0:
         7d:0e:b9:d2:aa:00:a6:50:92:a3:56:e2:3d:1f:e1:34:3c:87:
         ce:42:f1:a1:83:bf:43:58:3e:5b:a3:8c:30:36:01:11:25:b1:
         3e:37:74:42:e6:ad:88:a6:79:2d:67:fe:9c:3e:76:09:12:e9:
         e0:88:fc:5b:de:ff:e3:89:ff:25:c4:bf:b8:bd:2e:a8:a8:f7:
         a1:8d:ae:40:fc:83:00:e1:43:8d:09:35:72:19:39:f6:d5:f2:
         14:ba:27:d7:ba:26:d3:e7:4a:00:37:3c:a3:c7:b9:b6:bd:35:
         d1:63:2d:04:ed:2b:b5:b2:55:75:d6:9a:4f:9d:d7:63:b2:da:
         af:c5:ab:9f:5c:46:d4:3e:36:de:77:ac:5a:ca:01:21:81:c4:
         e3:cf:1c:ea:95:97:09:21:95:7e:d7:b8:d8:bd:3b:f5:6a:b7:
         6d:51:8b:b4:dc:a4:82:47:78:d4:cc:df:11:51:56:70:9d:17:
         5a:df:51:5e:b8:d6:28:2b
-----BEGIN CERTIFICATE-----
MIIFWTCCA0GgAwIBAgIBCDANBgkqhkiG9w0BAQUFADAqMRswGQYDVQQDDBJoeDUw
OSBUZXN0IFJvb3QgQ0ExCzAJBgNVBAYTAlNFMB4XDTIyMDkyODIxMjU1MVoXDTM2
MDcxNjIxMjU1MVowGzELMAkGA1UEBhMCU0UxDDAKBgNVBAMMA2tkYzCCAiIwDQYJ
KoZIhvcNAQEBBQADggIPADCCAgoCggIBAMDwFpjQhhv6+2aYVUgKlsNFrrwaRZWO
lANspXG8ZeqSS9WZb9jNQ6yDdPxEN0g0O1kdWodcaFFWHTTVU2INgpcNATl46Ay8
s+sAor9GLQMq9NlkD8SB2um1RN21Mq+Ix+0XM0LF9vwXll3CSZNmD8wOWeqwqxnS
JIILn2Fug6zldMA4ODi6eOqTnPnlG1rdQpZ5RFaSrAAFHO1QOWkgqVTs7W17Cs9f
kfJpkcFSMXTUL7xWTklmCZWAzxLK8B5IJUYyFf+sKPoRMehb+DT3VKr4qNKK3KTB
RhsLhKiEjQJCGqS/NYfdrgvBWI7t50DCgVqKmpxqw6XK4MpjtyY966OQuO+ESVnQ
ukDycJUGsuQ2xVOm0xaosQQh1TlHSI0WjmN3LuPmwXdbIfsPah3w8ciwt2nImLb1
dm7RBaAK+kCc3en90c1m3ZYXi3OQyrGMoJR9zv3vfcfQQePM9YtK9jITAKhSR3eg
yruiUQ4crfXKRtBUugo91IHL+VGz0uCIAB37vhfjJnZsNk/+dfgi1gci9YFpIUs8
jroFjZ5eNpjcsI6KRVKSodFPLb+a1ZRe5rZF3uxTnlI3MBCF1Zt2MZM4x68MRVaG
0wwTGUVd1w89uBePJPBvckui9Hm6qix4Pj8ib1Uh1MKYSvY2RoDQAa5ynErcpIga
We4VUO64aQ29AgMBAAGjgZgwgZUwCQYDVR0TBAIwADALBgNVHQ8EBAMCBeAwEgYD
VR0lBAswCQYHKwYBBQIDBTAdBgNVHQ4EFgQUTOc9HtNpb7UaibMktahBZvUPy4Mw
SAYDVR0RBEEwP6A9BgYrBgEFAgKgMzAxoA0bC1RFU1QuSDVMLlNFoSAwHqADAgEB
oRcwFRsGa3JidGd0GwtURVNULkg1TC5TRTANBgkqhkiG9w0BAQUFAAOCAgEAzrh3
rn9XTzM+HopB96fm2kn8P+V+QOroE1boi7FC1Q7DWx95aHQJ4ILr+4SjGuX8l/GG
Ic/By8reanUjrnitncfc+ubaqZKW5Zxtf+q1QigR/G9YAKxNXgOlMu3stdgy5bc+
lkTZT+zjUwWPZ+cuXuRBa9cY4nL9LzJliCi+6nrdbqmc+LX1UlgPDrKqG55/7+BB
YKplwIGtEcr5i82/Yi+TI1hjy/Y40TCP7FgvcGMyfoV7cMNBBwQPnJ1e/hB9Y53H
mIBKdEtN8qWI3JT6RMo+BF/54Scd9uDRKMFi04EtAFV2rNDTeJIzkR8JVl8DX+eD
BNN6ec5Qbnvd6iBdbjWKqnXe/h1efhtV4JYyqyfjmQdcbw94dcWhcjP32Y3++3iT
9n9JeNFzUtfM8+EP+Ug9e8zb77ML64sfqum9LGb8ycjwfQ650qoAplCSo1biPR/h
NDyHzkLxoYO/Q1g+W6OMMDYBESWxPjd0QuatiKZ5LWf+nD52CRLp4Ij8W97/44n/
JcS/uL0uqKj3oY2uQPyDAOFDjQk1chk59tXyFLon17om0+dKADc8o8e5tr010WMt
BO0rtbJVddaaT53XY7Lar8Wrn1xG1D423nesWsoBIYHE488c6pWXCSGVfte42L07
9Wq3bVGLtNykgkd41MzfEVFWcJ0XWt9RXrjWKCs=
-----END CERTIFICATE-----
