Certificate:
    Data:
        Version: 3 (0x2)
        Serial Number: 1 (0x1)
        Signature Algorithm: sha1WithRSAEncryption
        Issuer: CN=hx509 Test Root CA, C=SE
        Validity
            Not Before: Sep 28 21:25:43 2022 GMT
            Not After : Jul 16 21:25:43 2036 GMT
        Subject: C=SE, CN=OCSP responder
        Subject Public Key Info:
            Public Key Algorithm: rsaEncryption
                RSA Public-Key: (4096 bit)
                Modulus:
                    00:92:cf:34:52:55:65:2d:35:28:03:20:36:2c:4b:
                    57:87:9a:fb:0d:be:2d:e7:e0:b8:b6:7b:0a:f3:6a:
                    0f:37:ce:e3:2e:86:67:e1:cf:93:ab:aa:b6:29:ad:
                    23:f9:f3:8c:66:f0:11:ee:cf:2a:c0:21:ab:5b:cb:
                    34:5d:e2:1c:00:0a:f6:fc:e3:cb:47:12:89:71:3c:
                    35:32:50:9c:b0:e0:ea:a8:c0:6c:af:51:b3:fb:a1:
                    48:45:ea:32:95:58:ce:79:37:ab:a0:5f:2b:f9:01:
                    23:b9:e0:ce:bd:94:a9:7c:b8:14:9e:85:36:06:20:
                    01:0b:84:7e:7f:7f:c0:46:be:09:9b:d7:3f:07:b7:
                    25:a8:ae:79:54:a4:a3:d9:05:7f:e6:d8:92:53:2a:
                    13:f1:d7:1e:43:5c:02:d0:2a:83:78:00:33:b5:9b:
                    1d:cd:a6:87:76:81:72:64:2b:a1:20:0f:73:f3:fb:
                    9b:38:4a:54:ff:0f:78:1f:d9:7a:be:6b:fe:32:81:
                    85:eb:a1:d6:a6:6a:83:cd:b7:c0:0c:2f:00:73:96:
                    f0:97:b4:9d:c3:d9:04:72:ff:7b:f5:9f:e3:f9:be:
                    7c:d8:20:b4:1a:8e:51:de:53:20:85:a7:03:d9:5d:
                    81:3c:83:76:1e:7e:33:74:0d:ee:46:03:f4:a6:fc:
                    13:dd:8d:4c:2d:04:d0:89:f5:34:12:b0:a3:42:6b:
                    42:e2:eb:1b:48:83:5c:36:4b:92:7e:4a:16:d6:ce:
                    4d:75:e3:a5:af:73:0f:36:0c:e1:f4:46:f2:24:7c:
                    bf:7d:b3:13:83:98:5d:e1:19:98:be:fa:75:a5:6a:
                    e9:1b:96:e8:76:be:7c:f0:dd:45:47:2b:8a:99:17:
                    8d:45:11:85:d8:fc:cb:c3:96:5a:78:2d:a0:82:08:
                    c9:96:08:ba:1c:32:9b:81:57:9a:ff:ca:df:47:e4:
                    9e:e5:8c:42:49:d0:f4:80:ed:3f:3f:23:b0:86:06:
                    86:41:c9:90:29:c2:58:2f:40:d7:58:96:47:63:bc:
                    fd:32:85:68:73:00:41:46:22:86:33:66:2a:03:8d:
                    47:f0:63:d9:d2:18:ad:2e:5d:6a:4f:8d:bd:b6:45:
                    7d:1c:e2:ad:24:78:bc:aa:05:e1:fa:e4:0a:5b:e4:
                    29:67:4e:b4:11:bb:97:97:1a:db:0d:17:56:ad:b1:
                    20:e8:9d:86:a5:ab:d3:ae:cf:2a:e8:47:d8:a3:68:
                    27:6e:fd:ad:50:0e:ed:27:e0:36:95:56:0b:c4:6e:
                    47:7e:19:24:27:a0:ac:7a:53:0f:a5:15:13:33:5b:
                    2e:f7:55:55:c2:d3:57:d1:4f:03:c7:8a:8d:e5:49:
                    33:d5:21
                Exponent: 65537 (0x10001)
        X509v3 extensions:
            X509v3 Basic Constraints: 
                CA:FALSE
            X509v3 Key Usage: 
                Digital Signature, Non Repudiation, Key Encipherment
            X509v3 Extended Key Usage: 
                OCSP No Check, OCSP Signing
            X509v3 Subject Key Identifier: 
                99:7D:01:FC:9C:33:07:5C:84:EA:79:05:D3:10:F2:B3:D0:18:C6:46
    Signature Algorithm: sha1WithRSAEncryption
         c1:1d:05:e9:24:52:3d:6a:34:30:e3:42:f4:6b:f6:03:f7:8d:
         c1:d2:b6:95:65:b8:df:05:05:60:d1:fa:91:a8:31:45:46:82:
         e0:f4:34:d5:1c:2d:94:b8:3f:12:50:85:38:26:fe:02:ea:c3:
         2b:6d:a1:8a:2f:c7:c2:b1:49:b5:3d:c4:85:45:3d:89:1d:44:
         a1:45:fb:ed:19:9f:f6:18:cc:f0:7e:1b:8b:dd:3e:9b:f0:26:
         40:bb:74:36:db:24:8c:39:0f:1f:d4:6a:39:07:bb:ea:54:ec:
         56:42:98:58:4f:05:6e:10:8c:54:1c:4a:97:d4:b2:17:b7:3e:
         c6:52:a8:86:28:ca:1a:d7:e9:61:1e:d9:bb:cc:3d:b7:34:62:
         3f:d7:14:93:a0:b9:59:b3:97:82:30:9c:ae:dd:df:25:d3:98:
         5f:5a:78:4f:c4:bd:fe:02:c0:c1:6a:b6:c7:95:c0:93:02:17:
         27:03:1e:62:28:8e:e0:cf:34:96:ff:cd:90:5a:f9:e2:ed:8a:
         c1:92:7f:75:b1:ab:5a:af:a6:23:a9:9c:8e:be:d2:c9:0b:57:
         77:c9:ee:e9:a9:77:38:74:88:c5:47:c0:ec:0e:0e:51:60:5a:
         ac:d7:19:e1:87:da:78:d9:fd:91:45:df:1d:88:07:95:f3:12:
         51:00:0f:f8:b0:6e:86:fd:0c:28:0e:e3:cd:54:d2:05:fb:9b:
         91:1c:7f:06:27:2a:11:8d:70:78:57:14:04:47:22:75:44:ab:
         9f:2a:7a:37:93:60:52:df:86:aa:32:81:44:51:0c:00:06:82:
         a2:79:7c:4a:82:35:a2:85:55:1c:91:a1:c2:2c:76:04:7a:d5:
         a7:30:d7:72:31:5b:26:27:3c:81:b5:af:b2:99:ae:4c:f9:3a:
         98:62:19:96:6b:a1:de:68:90:09:6a:4f:f9:7d:ce:0e:20:a6:
         32:ea:07:7b:27:02:7d:ea:d7:35:bd:1d:46:c2:fe:4f:5b:19:
         31:87:eb:f9:7c:d6:fb:19:ae:58:1b:c1:4d:9e:f2:7c:5c:39:
         97:e0:f8:1f:12:a1:f4:4f:ce:5c:84:d7:3f:91:c0:96:df:ad:
         ff:79:8a:35:ae:b6:f3:52:d2:e3:da:cd:26:97:7e:f9:e7:40:
         b7:ed:c1:25:e4:5e:c3:cb:0e:09:26:51:e4:98:e4:7d:b8:a3:
         02:d6:0b:04:4f:6f:bd:86:3a:3a:70:89:93:f2:26:63:92:01:
         1a:c1:18:e5:f8:06:0d:ae:d0:0e:83:e0:a5:01:2c:c9:e1:51:
         ed:ec:3a:1b:22:44:f2:4c:d3:d3:bd:2a:9a:9b:c6:23:24:46:
         37:52:82:b3:9a:e5:8a:7a
-----BEGIN CERTIFICATE-----
MIIFJDCCAwygAwIBAgIBATANBgkqhkiG9w0BAQUFADAqMRswGQYDVQQDDBJoeDUw
OSBUZXN0IFJvb3QgQ0ExCzAJBgNVBAYTAlNFMB4XDTIyMDkyODIxMjU0M1oXDTM2
MDcxNjIxMjU0M1owJjELMAkGA1UEBhMCU0UxFzAVBgNVBAMMDk9DU1AgcmVzcG9u
ZGVyMIICIjANBgkqhkiG9w0BAQEFAAOCAg8AMIICCgKCAgEAks80UlVlLTUoAyA2
LEtXh5r7Db4t5+C4tnsK82oPN87jLoZn4c+Tq6q2Ka0j+fOMZvAR7s8qwCGrW8s0
XeIcAAr2/OPLRxKJcTw1MlCcsODqqMBsr1Gz+6FIReoylVjOeTeroF8r+QEjueDO
vZSpfLgUnoU2BiABC4R+f3/ARr4Jm9c/B7clqK55VKSj2QV/5tiSUyoT8dceQ1wC
0CqDeAAztZsdzaaHdoFyZCuhIA9z8/ubOEpU/w94H9l6vmv+MoGF66HWpmqDzbfA
DC8Ac5bwl7Sdw9kEcv979Z/j+b582CC0Go5R3lMghacD2V2BPIN2Hn4zdA3uRgP0
pvwT3Y1MLQTQifU0ErCjQmtC4usbSINcNkuSfkoW1s5NdeOlr3MPNgzh9EbyJHy/
fbMTg5hd4RmYvvp1pWrpG5bodr588N1FRyuKmReNRRGF2PzLw5ZaeC2gggjJlgi6
HDKbgVea/8rfR+Se5YxCSdD0gO0/PyOwhgaGQcmQKcJYL0DXWJZHY7z9MoVocwBB
RiKGM2YqA41H8GPZ0hitLl1qT429tkV9HOKtJHi8qgXh+uQKW+QpZ060EbuXlxrb
DRdWrbEg6J2GpavTrs8q6EfYo2gnbv2tUA7tJ+A2lVYLxG5HfhkkJ6CselMPpRUT
M1su91VVwtNX0U8Dx4qN5Ukz1SECAwEAAaNZMFcwCQYDVR0TBAIwADALBgNVHQ8E
BAMCBeAwHgYDVR0lBBcwFQYJKwYBBQUHMAEFBggrBgEFBQcDCTAdBgNVHQ4EFgQU
mX0B/JwzB1yE6nkF0xDys9AYxkYwDQYJKoZIhvcNAQEFBQADggIBAMEdBekkUj1q
NDDjQvRr9gP3jcHStpVluN8FBWDR+pGoMUVGguD0NNUcLZS4PxJQhTgm/gLqwytt
oYovx8KxSbU9xIVFPYkdRKFF++0Zn/YYzPB+G4vdPpvwJkC7dDbbJIw5Dx/UajkH
u+pU7FZCmFhPBW4QjFQcSpfUshe3PsZSqIYoyhrX6WEe2bvMPbc0Yj/XFJOguVmz
l4IwnK7d3yXTmF9aeE/Evf4CwMFqtseVwJMCFycDHmIojuDPNJb/zZBa+eLtisGS
f3Wxq1qvpiOpnI6+0skLV3fJ7umpdzh0iMVHwOwODlFgWqzXGeGH2njZ/ZFF3x2I
B5XzElEAD/iwbob9DCgO481U0gX7m5EcfwYnKhGNcHhXFARHInVEq58qejeTYFLf
hqoygURRDAAGgqJ5fEqCNaKFVRyRocIsdgR61acw13IxWyYnPIG1r7KZrkz5Ophi
GZZrod5okAlqT/l9zg4gpjLqB3snAn3q1zW9HUbC/k9bGTGH6/l81vsZrlgbwU2e
8nxcOZfg+B8SofRPzlyE1z+RwJbfrf95ijWutvNS0uPazSaXfvnnQLftwSXkXsPL
DgkmUeSY5H24owLWCwRPb72GOjpwiZPyJmOSARrBGOX4Bg2u0A6D4KUBLMnhUe3s
OhsiRPJM09O9KpqbxiMkRjdSgrOa5Yp6
-----END CERTIFICATE-----
