Certificate:
    Data:
        Version: 3 (0x2)
        Serial Number: 7 (0x7)
        Signature Algorithm: sha1WithRSAEncryption
        Issuer: CN=hx509 Test Root CA, C=SE
        Validity
            Not Before: Sep 28 21:25:49 2022 GMT
            Not After : Jul 16 21:25:49 2036 GMT
        Subject: C=SE, CN=pkinit-ec
        Subject Public Key Info:
            Public Key Algorithm: id-ecPublicKey
                Public-Key: (256 bit)
                pub:
                    04:7c:32:d7:1e:06:75:59:29:82:7a:59:22:40:02:
                    a0:c6:66:ec:29:a8:48:15:cf:02:ed:c0:46:23:36:
                    be:12:bd:10:66:cb:eb:fc:3c:1d:f7:1a:4b:34:92:
                    c7:c2:d3:d8:ec:2a:0f:7e:aa:25:b1:1d:c2:63:8a:
                    8c:80:2f:00:f3
                ASN1 OID: prime256v1
                NIST CURVE: P-256
        X509v3 extensions:
            X509v3 Basic Constraints: 
                CA:FALSE
            X509v3 Key Usage: 
                Digital Signature, Non Repudiation, Key Encipherment
            X509v3 Subject Key Identifier: 
                6B:B1:48:28:41:44:D9:CB:CE:24:CA:26:D8:32:F4:4B:9A:CD:58:1F
            X509v3 Subject Alternative Name: 
                othername:<unsupported>
    Signature Algorithm: sha1WithRSAEncryption
         c8:2c:3e:94:2e:7a:01:9b:5e:a4:32:35:60:59:0a:67:94:39:
         83:cd:ed:c9:41:07:0e:b2:11:52:6b:3b:5d:13:af:01:cd:50:
         b0:fd:11:e0:44:41:b0:6a:d0:ef:6e:9f:61:fd:a5:5a:13:dc:
         d3:81:39:58:28:de:34:f2:a5:2c:9b:4a:72:a9:43:2c:38:95:
         34:db:64:8e:62:7d:17:22:0e:92:eb:0d:d5:7b:d6:ca:a1:fa:
         79:2e:42:00:e3:ff:97:21:0e:bf:fd:8a:8e:ee:d6:b9:a3:54:
         a3:d5:e5:80:57:6a:da:dd:47:16:bd:51:b3:b1:98:f5:e9:70:
         36:da:8b:49:22:06:54:d1:d7:13:c5:f3:56:21:9e:82:26:0e:
         60:7c:f9:84:1a:73:53:b6:9d:ac:ce:3c:a3:02:fa:8f:7d:38:
         67:2d:f8:3b:9a:4b:c5:f5:b9:58:21:6c:68:ce:70:73:e6:5a:
         8b:82:79:b6:8a:c7:d8:4a:b0:8a:d7:b3:22:a1:a9:ec:e9:43:
         d9:5a:b8:17:17:3c:4e:f6:26:17:c4:60:86:24:59:0f:29:7a:
         53:a2:b6:7b:53:95:1f:ee:eb:be:62:ad:a9:a0:ab:b9:4f:12:
         57:57:be:74:13:94:76:90:7f:a7:ea:91:7d:d1:bb:c0:62:dc:
         29:af:32:b5:b1:b3:db:26:86:4c:62:69:ef:e0:37:02:d9:52:
         48:0c:17:ba:87:ed:6a:ac:06:f8:43:8c:db:20:6f:ea:3c:54:
         9a:ff:c4:aa:9a:40:d5:ad:e7:00:13:5a:0d:7a:6e:3a:f5:90:
         74:c0:ac:16:8b:a3:80:20:44:c9:12:19:fc:6f:55:a9:06:7b:
         5c:3e:9c:7b:bd:4c:5b:94:8c:66:3d:16:e1:b6:87:d1:1b:61:
         cc:04:c0:ab:eb:fc:fe:67:d2:9c:11:d5:25:1c:bb:bc:74:86:
         42:7d:d2:cf:ad:d9:23:01:e4:86:d9:55:d9:89:a7:5d:cb:c0:
         9e:56:37:e4:54:6d:c1:38:0c:79:42:74:e2:3f:0e:92:79:9c:
         85:c1:e0:ed:31:1b:32:a3:bc:67:aa:b7:33:2c:97:fd:42:10:
         32:51:fc:c2:8b:c9:f6:c4:53:c5:60:a1:6a:dc:4d:b4:5f:bd:
         1f:dc:b2:3b:ee:32:73:ff:2c:59:9e:40:3b:c3:43:fc:4a:90:
         21:b2:c2:f1:e2:b4:04:0c:ed:24:fd:20:01:fb:be:ec:78:dd:
         0c:3f:7a:f4:49:d0:f5:6a:94:99:18:fd:ab:03:9f:32:a7:0d:
         99:d0:5c:b8:68:54:7e:ba:0e:ee:0f:93:bf:74:a1:e6:b6:15:
         63:82:a5:26:51:4a:49:01
-----BEGIN CERTIFICATE-----
MIIDbjCCAVagAwIBAgIBBzANBgkqhkiG9w0BAQUFADAqMRswGQYDVQQDDBJoeDUw
OSBUZXN0IFJvb3QgQ0ExCzAJBgNVBAYTAlNFMB4XDTIyMDkyODIxMjU0OVoXDTM2
MDcxNjIxMjU0OVowITELMAkGA1UEBhMCU0UxEjAQBgNVBAMMCXBraW5pdC1lYzBZ
MBMGByqGSM49AgEGCCqGSM49AwEHA0IABHwy1x4GdVkpgnpZIkACoMZm7CmoSBXP
Au3ARiM2vhK9EGbL6/w8HfcaSzSSx8LT2OwqD36qJbEdwmOKjIAvAPOjczBxMAkG
A1UdEwQCMAAwCwYDVR0PBAQDAgXgMB0GA1UdDgQWBBRrsUgoQUTZy84kyibYMvRL
ms1YHzA4BgNVHREEMTAvoC0GBisGAQUCAqAjMCGgDRsLVEVTVC5INUwuU0WhEDAO
oAMCAQGhBzAFGwNiYXIwDQYJKoZIhvcNAQEFBQADggIBAMgsPpQuegGbXqQyNWBZ
CmeUOYPN7clBBw6yEVJrO10TrwHNULD9EeBEQbBq0O9un2H9pVoT3NOBOVgo3jTy
pSybSnKpQyw4lTTbZI5ifRciDpLrDdV71sqh+nkuQgDj/5chDr/9io7u1rmjVKPV
5YBXatrdRxa9UbOxmPXpcDbai0kiBlTR1xPF81YhnoImDmB8+YQac1O2nazOPKMC
+o99OGct+DuaS8X1uVghbGjOcHPmWouCebaKx9hKsIrXsyKhqezpQ9lauBcXPE72
JhfEYIYkWQ8pelOitntTlR/u675iramgq7lPEldXvnQTlHaQf6fqkX3Ru8Bi3Cmv
MrWxs9smhkxiae/gNwLZUkgMF7qH7WqsBvhDjNsgb+o8VJr/xKqaQNWt5wATWg16
bjr1kHTArBaLo4AgRMkSGfxvVakGe1w+nHu9TFuUjGY9FuG2h9EbYcwEwKvr/P5n
0pwR1SUcu7x0hkJ90s+t2SMB5IbZVdmJp13LwJ5WN+RUbcE4DHlCdOI/DpJ5nIXB
4O0xGzKjvGeqtzMsl/1CEDJR/MKLyfbEU8VgoWrcTbRfvR/csjvuMnP/LFmeQDvD
Q/xKkCGywvHitAQM7ST9IAH7vux43Qw/evRJ0PVqlJkY/asDnzKnDZnQXLhoVH66
Du4Pk790oea2FWOCpSZRSkkB
-----END CERTIFICATE-----
