Certificate:
    Data:
        Version: 3 (0x2)
        Serial Number: 6 (0x6)
        Signature Algorithm: sha1WithRSAEncryption
        Issuer: CN=hx509 Test Root CA, C=SE
        Validity
            Not Before: Sep 28 21:25:49 2022 GMT
            Not After : Jul 16 21:25:49 2036 GMT
        Subject: C=SE, CN=pkinit
        Subject Public Key Info:
            Public Key Algorithm: rsaEncryption
                RSA Public-Key: (4096 bit)
                Modulus:
                    00:bb:e0:3c:a6:8b:0c:aa:2a:93:d1:8b:96:a9:5e:
                    cc:ac:f3:c9:83:90:73:6e:b0:38:a1:70:22:ca:b3:
                    3b:c3:fe:11:ca:29:6d:e0:3d:56:52:12:44:b4:fd:
                    10:6b:c7:f9:d3:e0:37:1d:08:a4:87:2f:60:91:cf:
                    fa:a4:c7:c1:dd:be:fd:35:51:b5:d0:78:0a:a6:c0:
                    f8:b1:8b:13:e5:e6:ef:84:84:13:26:75:60:f9:74:
                    03:9d:0c:79:75:34:88:cb:c9:53:92:68:9a:a8:eb:
                    a2:61:96:1a:7d:4c:a3:a6:42:d0:6c:0c:dd:6e:0c:
                    bf:eb:50:0e:76:cd:7f:87:7e:48:d5:3d:fa:40:33:
                    9c:2a:78:be:23:c1:6c:c2:50:4a:f0:51:f3:91:d3:
                    9a:26:34:49:92:72:e6:f6:52:2a:70:18:d3:f8:b1:
                    24:ad:54:9e:f1:79:c2:c9:a3:5e:df:fd:41:71:7d:
                    9c:14:4c:4d:c8:49:6e:50:80:99:cf:f9:c9:75:ed:
                    14:bf:02:c3:4a:38:04:f2:49:b3:14:a4:55:8b:3c:
                    83:fa:14:91:51:fd:4c:1c:4b:5d:8c:ab:31:c7:f8:
                    b6:38:28:fb:0e:df:4a:40:ce:2f:f0:3e:2f:72:0f:
                    83:e4:02:d8:32:92:a1:4c:bc:d6:0a:32:0b:82:81:
                    ce:40:61:02:a0:8c:c2:eb:f9:3c:b5:11:08:2d:b6:
                    b9:35:07:cd:ca:34:d3:88:38:f4:d3:3f:d1:7a:76:
                    db:4c:f4:69:4b:22:76:06:97:9a:03:7a:7a:ce:28:
                    bb:69:48:ee:d3:dd:f8:1f:e8:0b:74:9e:2f:37:75:
                    8d:d4:a1:ea:56:90:f5:e8:fa:3c:7f:91:92:b2:dd:
                    ef:37:90:04:ea:f3:b6:d2:54:f8:ff:3e:36:20:23:
                    59:12:62:d3:18:e6:b6:7b:a2:88:fd:9a:28:96:9e:
                    41:25:33:4d:6a:45:df:6e:df:2c:9f:6b:c7:a5:70:
                    2c:23:ca:92:23:39:83:0a:df:b3:96:33:43:45:da:
                    0b:e5:50:d2:c4:dd:80:97:67:cf:35:ac:54:76:04:
                    bf:be:24:ef:48:6a:61:f3:e4:01:cd:0e:7f:b8:b8:
                    e4:cf:9e:93:6e:44:41:b9:9e:5a:3a:da:67:8b:1f:
                    51:4b:7a:87:6b:fc:3b:3c:ac:61:ac:62:36:a2:b1:
                    fb:1d:ca:8c:c5:e2:61:04:d7:70:a8:af:c4:86:cd:
                    f4:19:b5:e6:17:93:7a:49:6a:ab:fa:68:11:23:e6:
                    d0:c2:9c:59:1a:24:85:f6:1c:a3:eb:35:65:ec:65:
                    97:cc:ab:e9:58:33:3d:86:af:e9:5d:f6:3a:79:4c:
                    df:f9:7d
                Exponent: 65537 (0x10001)
        X509v3 extensions:
            X509v3 Basic Constraints: 
                CA:FALSE
            X509v3 Key Usage: 
                Digital Signature, Non Repudiation, Key Encipherment
            X509v3 Subject Key Identifier: 
                CC:B4:9D:80:43:BA:5F:9A:5B:B7:2D:B0:15:5A:3B:AF:40:34:0B:ED
            X509v3 Subject Alternative Name: 
                othername:<unsupported>
    Signature Algorithm: sha1WithRSAEncryption
         2f:e5:0d:38:c7:ea:a4:cf:47:71:35:76:47:dd:3c:bc:c7:50:
         50:3d:4b:8c:1d:59:82:22:89:23:26:21:e4:18:9e:bb:3e:13:
         30:1b:40:08:2c:b5:f6:2a:e9:eb:5f:9c:2f:2d:19:e4:93:0b:
         f4:28:d5:aa:d1:13:46:e2:cd:17:0d:82:05:2f:76:86:3b:11:
         06:02:53:fb:3c:57:58:18:5c:fe:d1:1c:0f:32:54:bd:e8:65:
         7d:2d:de:05:df:12:a0:14:0b:b0:2c:35:7c:89:0a:b6:75:cc:
         91:fe:18:c5:34:33:39:8c:7b:b6:9e:c7:f7:71:b2:d0:ec:87:
         86:fb:8d:d8:17:0b:aa:d9:6c:7a:11:b1:a7:14:2a:39:7e:dd:
         53:51:8a:65:45:de:6f:b2:4e:a7:b2:9d:17:37:4a:64:b2:52:
         1b:74:6a:d0:d7:f7:c7:84:0f:ee:6c:60:a1:8a:1b:cb:2b:3f:
         8a:17:91:fa:da:81:b9:76:1b:f0:fe:4c:0c:c4:9b:b8:7e:f7:
         a0:9b:e6:d3:b0:69:71:92:c7:14:ad:0e:00:ae:11:a3:87:16:
         22:19:77:26:28:75:66:cc:89:32:bd:46:ee:0e:7f:c2:b2:24:
         61:8f:37:e6:e7:a3:eb:0c:b2:6a:3f:fc:aa:64:95:65:47:b2:
         f7:cd:13:99:7e:40:7c:21:27:e6:a8:46:f7:56:d7:16:40:c9:
         90:da:ab:bf:7d:58:52:f6:78:5f:fc:cb:97:a2:a5:98:4d:52:
         25:c6:8e:9a:a4:50:21:91:f6:3a:0b:4c:12:00:dd:14:95:ec:
         a9:84:f8:92:a7:21:37:7d:1f:44:7b:ec:de:e2:e5:7a:21:fe:
         30:94:91:0e:9c:5f:d2:71:13:c8:1c:97:82:6c:d4:03:3c:e7:
         69:aa:27:4c:23:30:7f:e0:2a:4c:d5:b2:19:65:64:08:4b:5a:
         f9:d3:58:93:98:82:f3:4a:f0:f7:fd:9b:5d:43:47:9b:c8:f5:
         23:45:98:f5:08:5a:82:ee:71:ef:32:3c:ce:b7:dc:67:d1:ac:
         dd:2f:de:11:e9:2e:76:43:4e:e5:b7:5a:55:c8:2c:66:4a:fd:
         32:51:a9:87:30:88:6c:91:78:c8:05:fb:32:91:e7:64:9e:de:
         73:f3:ed:80:64:6c:12:6b:84:83:37:f2:ef:a4:11:be:26:21:
         d3:d1:73:eb:9f:8c:3b:63:50:89:94:ac:31:ae:f7:93:e3:5e:
         1e:2e:38:71:34:5d:37:dd:d3:98:59:4c:35:dd:19:30:47:2f:
         6d:69:1d:f6:d0:38:ac:ad:ff:8d:8f:c8:d7:be:8c:41:66:01:
         92:c6:28:6f:d0:04:0d:43
-----BEGIN CERTIFICATE-----
MIIFNjCCAx6gAwIBAgIBBjANBgkqhkiG9w0BAQUFADAqMRswGQYDVQQDDBJoeDUw
OSBUZXN0IFJvb3QgQ0ExCzAJBgNVBAYTAlNFMB4XDTIyMDkyODIxMjU0OVoXDTM2
MDcxNjIxMjU0OVowHjELMAkGA1UEBhMCU0UxDzANBgNVBAMMBnBraW5pdDCCAiIw
DQYJKoZIhvcNAQEBBQADggIPADCCAgoCggIBALvgPKaLDKoqk9GLlqlezKzzyYOQ
c26wOKFwIsqzO8P+EcopbeA9VlISRLT9EGvH+dPgNx0IpIcvYJHP+qTHwd2+/TVR
tdB4CqbA+LGLE+Xm74SEEyZ1YPl0A50MeXU0iMvJU5JomqjromGWGn1Mo6ZC0GwM
3W4Mv+tQDnbNf4d+SNU9+kAznCp4viPBbMJQSvBR85HTmiY0SZJy5vZSKnAY0/ix
JK1UnvF5wsmjXt/9QXF9nBRMTchJblCAmc/5yXXtFL8Cw0o4BPJJsxSkVYs8g/oU
kVH9TBxLXYyrMcf4tjgo+w7fSkDOL/A+L3IPg+QC2DKSoUy81goyC4KBzkBhAqCM
wuv5PLURCC22uTUHzco004g49NM/0Xp220z0aUsidgaXmgN6es4ou2lI7tPd+B/o
C3SeLzd1jdSh6laQ9ej6PH+RkrLd7zeQBOrzttJU+P8+NiAjWRJi0xjmtnuiiP2a
KJaeQSUzTWpF327fLJ9rx6VwLCPKkiM5gwrfs5YzQ0XaC+VQ0sTdgJdnzzWsVHYE
v74k70hqYfPkAc0Of7i45M+ek25EQbmeWjraZ4sfUUt6h2v8OzysYaxiNqKx+x3K
jMXiYQTXcKivxIbN9Bm15heTeklqq/poESPm0MKcWRokhfYco+s1Zexll8yr6Vgz
PYav6V32OnlM3/l9AgMBAAGjczBxMAkGA1UdEwQCMAAwCwYDVR0PBAQDAgXgMB0G
A1UdDgQWBBTMtJ2AQ7pfmlu3LbAVWjuvQDQL7TA4BgNVHREEMTAvoC0GBisGAQUC
AqAjMCGgDRsLVEVTVC5INUwuU0WhEDAOoAMCAQGhBzAFGwNiYXIwDQYJKoZIhvcN
AQEFBQADggIBAC/lDTjH6qTPR3E1dkfdPLzHUFA9S4wdWYIiiSMmIeQYnrs+EzAb
QAgstfYq6etfnC8tGeSTC/Qo1arRE0bizRcNggUvdoY7EQYCU/s8V1gYXP7RHA8y
VL3oZX0t3gXfEqAUC7AsNXyJCrZ1zJH+GMU0MzmMe7aex/dxstDsh4b7jdgXC6rZ
bHoRsacUKjl+3VNRimVF3m+yTqeynRc3SmSyUht0atDX98eED+5sYKGKG8srP4oX
kfragbl2G/D+TAzEm7h+96Cb5tOwaXGSxxStDgCuEaOHFiIZdyYodWbMiTK9Ru4O
f8KyJGGPN+bno+sMsmo//KpklWVHsvfNE5l+QHwhJ+aoRvdW1xZAyZDaq799WFL2
eF/8y5eipZhNUiXGjpqkUCGR9joLTBIA3RSV7KmE+JKnITd9H0R77N7i5Xoh/jCU
kQ6cX9JxE8gcl4Js1AM852mqJ0wjMH/gKkzVshllZAhLWvnTWJOYgvNK8Pf9m11D
R5vI9SNFmPUIWoLuce8yPM633GfRrN0v3hHpLnZDTuW3WlXILGZK/TJRqYcwiGyR
eMgF+zKR52Se3nPz7YBkbBJrhIM38u+kEb4mIdPRc+ufjDtjUImUrDGu95PjXh4u
OHE0XTfd05hZTDXdGTBHL21pHfbQOKyt/42PyNe+jEFmAZLGKG/QBA1D
-----END CERTIFICATE-----
