Certificate:
    Data:
        Version: 3 (0x2)
        Serial Number: 3 (0x3)
        Signature Algorithm: sha1WithRSAEncryption
        Issuer: CN=hx509 Test Root CA, C=SE
        Validity
            Not Before: Sep 28 21:25:47 2022 GMT
            Not After : Jul 16 21:25:47 2036 GMT
        Subject: C=SE, CN=Revoke cert
        Subject Public Key Info:
            Public Key Algorithm: rsaEncryption
                RSA Public-Key: (4096 bit)
                Modulus:
                    00:d3:31:fa:fb:e4:fd:5a:36:c6:70:1d:46:1e:2b:
                    bf:71:58:a1:a8:a1:97:26:0a:fc:0f:f0:b6:c3:64:
                    c0:80:86:c9:a5:ca:86:ea:c7:b7:cd:4c:ba:be:8d:
                    8d:b4:fc:b4:f6:be:80:06:0e:c7:8c:4b:b8:32:34:
                    6f:66:c4:df:ce:6d:96:10:01:ee:2d:c2:6e:4a:38:
                    95:fe:b8:fd:b7:85:14:1c:64:55:5f:22:25:a7:eb:
                    f8:30:08:7c:7c:76:22:e9:ea:6a:cd:69:cc:84:14:
                    50:dd:91:80:fb:0a:b8:fc:42:fe:1f:7d:40:6d:0a:
                    b6:2c:cc:14:75:dd:c5:87:b5:46:32:03:e7:cf:79:
                    9c:10:d0:52:33:bf:1d:cc:70:e5:7b:5a:e2:0f:ff:
                    96:fb:2f:2c:08:9e:ad:ee:1b:3d:ed:e0:56:25:c6:
                    98:50:6c:26:c5:d2:fb:97:1e:9d:66:d0:86:b2:e3:
                    9a:a0:21:63:69:24:2a:69:87:00:59:6a:b7:ec:9a:
                    a8:4f:88:45:f8:01:0e:96:51:7c:cd:2d:2c:f1:e9:
                    8f:3f:f9:22:2b:6a:82:ed:52:3c:92:11:92:59:b3:
                    57:ad:33:04:4f:77:a3:3d:db:23:47:c6:8a:e6:96:
                    99:7f:fb:0a:9e:50:89:67:66:13:6f:fe:36:10:0c:
                    22:2a:c6:9e:f7:57:7c:8f:67:43:83:04:65:43:4a:
                    5a:7c:7a:2d:85:b0:3f:8c:27:11:f7:68:ed:96:13:
                    ba:e3:37:9b:77:33:59:b7:69:a2:15:e5:b4:af:0e:
                    a3:a3:c0:6f:d9:e5:08:8f:ba:a8:97:93:3f:b5:6c:
                    b5:51:66:70:f4:6a:41:40:4b:30:2f:96:a7:78:f9:
                    a7:c0:26:32:a1:71:a7:ab:51:8b:fd:f2:c7:91:7e:
                    ae:bd:d0:2f:53:73:b5:9a:77:cb:ac:fd:28:9f:ae:
                    94:d0:68:16:88:80:c0:d5:eb:41:b0:a0:26:33:29:
                    71:b1:54:a6:98:89:70:0f:e1:4e:d1:44:ab:5d:7e:
                    0a:0a:7e:73:cb:b6:be:8b:dd:f4:e0:91:57:75:02:
                    3b:b2:66:34:5e:7b:3d:cf:f0:8f:9e:0b:6a:c5:98:
                    30:93:11:0b:ac:01:09:88:e4:d7:0c:c6:f8:fd:3f:
                    1f:ed:ce:1c:40:52:12:25:53:ae:ef:a9:96:c1:93:
                    5c:9d:26:b4:f9:bf:de:28:4d:0a:87:0f:7b:7c:74:
                    d4:c1:e9:6a:92:16:46:21:e1:ac:2c:0c:50:36:7f:
                    36:fb:03:31:de:cc:cb:f3:73:1b:a8:0a:e7:11:8f:
                    4c:4e:1c:f9:9f:11:6f:d1:24:3b:e1:d9:ce:64:7d:
                    48:2e:b9
                Exponent: 65537 (0x10001)
        X509v3 extensions:
            X509v3 Basic Constraints: 
                CA:FALSE
            X509v3 Key Usage: 
                Digital Signature, Non Repudiation, Key Encipherment
            X509v3 Subject Key Identifier: 
                E8:F8:D3:C3:EC:7C:B7:F4:79:2F:5C:A0:11:E9:F0:37:FC:98:54:8B
    Signature Algorithm: sha1WithRSAEncryption
         aa:a1:09:09:6b:30:c1:ab:8b:39:88:39:02:14:64:0c:d6:61:
         7c:ec:0d:28:76:99:5b:46:02:33:59:79:5c:54:33:e2:56:cb:
         c2:01:a1:6e:11:08:0d:fb:a3:2b:6e:0c:47:fa:12:a8:2c:96:
         5a:d7:0d:ea:c9:67:91:73:05:06:e5:d5:c7:94:f3:e5:f2:e2:
         d7:d1:78:49:37:11:e5:6d:1a:b4:62:07:15:af:96:8c:25:d9:
         c9:34:bd:12:e4:11:3f:0b:c0:71:6f:fb:f7:21:b9:63:c1:59:
         af:56:fc:92:52:38:51:ef:fc:81:8e:e1:39:aa:6d:5a:c8:95:
         13:63:43:24:d0:49:90:90:b2:bb:76:03:fe:61:cf:37:5a:4a:
         fd:1b:3d:74:68:82:87:61:9c:99:74:eb:8d:0a:4b:a5:20:ce:
         91:e3:ec:a7:f9:98:39:22:87:37:a0:39:aa:88:ba:5e:2e:ac:
         ab:bb:e6:d8:cb:c0:f3:73:1d:ee:2c:95:36:a0:ff:4a:e2:d4:
         47:b9:3d:e9:bf:98:62:89:88:e6:e9:f8:c3:bb:b0:08:a0:41:
         e3:12:eb:7d:a5:a2:61:62:9a:1c:5a:76:32:64:02:3b:00:24:
         17:65:d9:3c:6e:29:8b:f2:f5:ee:f8:f5:21:63:ee:0e:a4:84:
         19:e5:05:ee:58:70:bc:a9:a2:4a:73:97:d7:82:c9:69:a6:36:
         0d:75:14:77:70:69:92:45:49:52:58:ff:28:f8:cc:5e:c1:d7:
         0f:7e:cf:fd:b2:48:86:b3:4a:73:7c:97:8f:6a:62:d6:8a:84:
         3e:2c:fb:51:03:a1:27:c8:20:3a:1a:49:ec:68:87:3b:68:b3:
         c3:af:e2:76:74:45:d6:0f:24:3b:cd:7a:8a:36:45:26:9b:57:
         04:f1:d6:8f:8f:3c:92:3c:60:bf:e9:88:9b:ab:75:63:28:6c:
         c3:fe:08:66:be:0b:7c:99:4a:2c:d9:a4:b7:93:cd:43:10:c5:
         83:52:24:46:47:a5:20:b8:be:4b:2f:ec:1f:0e:00:0f:e6:59:
         a7:86:d9:0a:9e:04:4d:d4:c3:27:1b:d7:f9:82:3d:ba:29:c9:
         a6:f2:33:3b:6b:a7:e4:f2:9e:03:43:94:87:b1:9d:2a:61:a3:
         65:10:af:01:2c:5b:1e:3c:bc:3c:51:c3:e3:79:5a:ab:0e:59:
         be:dd:30:9b:24:95:2d:70:51:ec:9b:28:22:11:e4:b1:1b:71:
         37:c8:84:00:5b:7a:42:c7:b2:87:3a:1e:c1:f7:e8:f7:87:25:
         9b:49:96:56:9c:e1:10:c4:28:e6:13:c1:74:e8:23:89:1f:24:
         c8:88:b9:60:d4:8c:30:be
-----BEGIN CERTIFICATE-----
MIIFATCCAumgAwIBAgIBAzANBgkqhkiG9w0BAQUFADAqMRswGQYDVQQDDBJoeDUw
OSBUZXN0IFJvb3QgQ0ExCzAJBgNVBAYTAlNFMB4XDTIyMDkyODIxMjU0N1oXDTM2
MDcxNjIxMjU0N1owIzELMAkGA1UEBhMCU0UxFDASBgNVBAMMC1Jldm9rZSBjZXJ0
MIICIjANBgkqhkiG9w0BAQEFAAOCAg8AMIICCgKCAgEA0zH6++T9WjbGcB1GHiu/
cVihqKGXJgr8D/C2w2TAgIbJpcqG6se3zUy6vo2NtPy09r6ABg7HjEu4MjRvZsTf
zm2WEAHuLcJuSjiV/rj9t4UUHGRVXyIlp+v4MAh8fHYi6epqzWnMhBRQ3ZGA+wq4
/EL+H31AbQq2LMwUdd3Fh7VGMgPnz3mcENBSM78dzHDle1riD/+W+y8sCJ6t7hs9
7eBWJcaYUGwmxdL7lx6dZtCGsuOaoCFjaSQqaYcAWWq37JqoT4hF+AEOllF8zS0s
8emPP/kiK2qC7VI8khGSWbNXrTMET3ejPdsjR8aK5paZf/sKnlCJZ2YTb/42EAwi
Ksae91d8j2dDgwRlQ0pafHothbA/jCcR92jtlhO64zebdzNZt2miFeW0rw6jo8Bv
2eUIj7qol5M/tWy1UWZw9GpBQEswL5anePmnwCYyoXGnq1GL/fLHkX6uvdAvU3O1
mnfLrP0on66U0GgWiIDA1etBsKAmMylxsVSmmIlwD+FO0USrXX4KCn5zy7a+i930
4JFXdQI7smY0Xns9z/CPngtqxZgwkxELrAEJiOTXDMb4/T8f7c4cQFISJVOu76mW
wZNcnSa0+b/eKE0Khw97fHTUwelqkhZGIeGsLAxQNn82+wMx3szL83MbqArnEY9M
Thz5nxFv0SQ74dnOZH1ILrkCAwEAAaM5MDcwCQYDVR0TBAIwADALBgNVHQ8EBAMC
BeAwHQYDVR0OBBYEFOj408PsfLf0eS9coBHp8Df8mFSLMA0GCSqGSIb3DQEBBQUA
A4ICAQCqoQkJazDBq4s5iDkCFGQM1mF87A0odplbRgIzWXlcVDPiVsvCAaFuEQgN
+6MrbgxH+hKoLJZa1w3qyWeRcwUG5dXHlPPl8uLX0XhJNxHlbRq0YgcVr5aMJdnJ
NL0S5BE/C8Bxb/v3IbljwVmvVvySUjhR7/yBjuE5qm1ayJUTY0Mk0EmQkLK7dgP+
Yc83Wkr9Gz10aIKHYZyZdOuNCkulIM6R4+yn+Zg5Ioc3oDmqiLpeLqyru+bYy8Dz
cx3uLJU2oP9K4tRHuT3pv5hiiYjm6fjDu7AIoEHjEut9paJhYpocWnYyZAI7ACQX
Zdk8bimL8vXu+PUhY+4OpIQZ5QXuWHC8qaJKc5fXgslppjYNdRR3cGmSRUlSWP8o
+MxewdcPfs/9skiGs0pzfJePamLWioQ+LPtRA6EnyCA6GknsaIc7aLPDr+J2dEXW
DyQ7zXqKNkUmm1cE8daPjzySPGC/6Yibq3VjKGzD/ghmvgt8mUos2aS3k81DEMWD
UiRGR6UguL5LL+wfDgAP5lmnhtkKngRN1MMnG9f5gj26Kcmm8jM7a6fk8p4DQ5SH
sZ0qYaNlEK8BLFsePLw8UcPjeVqrDlm+3TCbJJUtcFHsmygiEeSxG3E3yIQAW3pC
x7KHOh7B9+j3hyWbSZZWnOEQxCjmE8F06COJHyTIiLlg1Iwwvg==
-----END CERTIFICATE-----
