Certificate:
    Data:
        Version: 3 (0x2)
        Serial Number: 11 (0xb)
        Signature Algorithm: sha1WithRSAEncryption
        Issuer: C=SE, CN=Sub CA
        Validity
            Not Before: Sep 28 21:25:54 2022 GMT
            Not After : Jul 16 21:25:54 2036 GMT
        Subject: C=SE, CN=Test sub cert
        Subject Public Key Info:
            Public Key Algorithm: rsaEncryption
                RSA Public-Key: (4096 bit)
                Modulus:
                    00:b5:2a:8d:9c:fb:9d:5d:9f:18:d0:66:b4:4d:e1:
                    9a:1b:63:1b:5a:85:2a:0d:7a:f3:8d:99:c8:1c:b7:
                    7b:40:4e:01:91:04:ac:09:5d:2e:eb:07:04:b8:4c:
                    d9:a6:2c:a4:8c:01:63:f2:2f:21:7e:1e:84:d9:df:
                    a9:53:f5:38:d1:e3:ed:54:8b:25:e9:a2:bb:c4:cf:
                    3b:12:55:5d:37:05:a8:87:55:87:0a:d6:0f:87:86:
                    80:ce:97:22:8f:d7:d4:fa:3a:dd:a5:41:67:b5:d9:
                    f6:7f:41:dc:3a:08:5c:ed:47:54:11:b8:40:88:95:
                    20:93:8f:4e:40:5f:a7:5a:16:9f:07:cd:99:f4:12:
                    b1:c8:48:d4:33:aa:3a:4e:0b:ff:dd:c2:e7:38:da:
                    de:04:c8:9f:9b:31:71:9c:c8:aa:7d:d4:fd:f9:10:
                    9a:b1:4c:df:3b:75:81:d8:9d:0c:20:e4:14:47:7c:
                    d8:9c:85:64:01:cf:4b:28:e2:67:d4:fc:2b:c3:fe:
                    74:62:9b:b8:26:fc:b2:89:77:5d:96:d8:b4:75:db:
                    cb:e3:66:a5:3b:c7:4d:c0:7a:3d:50:5d:5a:67:14:
                    72:14:bd:ea:34:43:61:00:9c:e5:96:c2:c3:02:70:
                    03:f5:03:05:3c:6a:b0:d4:9b:04:8d:2b:45:58:7f:
                    d3:3c:61:1d:0b:ca:fc:20:0b:d5:b4:52:78:4c:e0:
                    39:e4:d8:d8:51:13:95:03:26:82:8b:42:7e:8c:bb:
                    4e:f1:7f:fe:b3:e1:c1:29:4a:b2:4b:92:c5:5f:04:
                    eb:c1:62:7f:68:24:b9:f2:0b:d7:ce:96:f3:ed:99:
                    9d:a3:30:d7:57:24:91:df:a5:f8:97:18:64:18:bc:
                    0e:01:cb:7b:84:fd:5c:72:4f:fc:85:eb:4e:c0:2d:
                    ee:25:16:97:87:09:0f:0a:5e:d5:dd:04:ad:3e:53:
                    28:b3:d1:06:9f:42:82:d8:2a:95:10:a6:c7:a1:32:
                    2c:56:9c:b3:c3:86:e5:63:a7:9e:4b:e8:e2:ef:af:
                    93:58:bf:b9:ad:95:a5:9f:f9:3a:1e:4b:12:36:2a:
                    31:a0:f3:74:fa:4a:14:67:f3:df:0a:98:c0:bf:2b:
                    53:b0:50:d9:cc:97:76:32:0e:75:71:7e:e0:63:84:
                    86:c3:3d:ca:5a:25:8f:e9:41:a4:20:93:30:b0:cf:
                    f8:d1:a8:12:80:1c:fc:91:85:2b:3b:df:a1:12:9e:
                    f1:e7:cb:0f:4b:6e:ff:8f:27:8d:89:c2:aa:1b:48:
                    05:fb:d4:33:d2:fd:09:67:55:14:fa:57:57:e8:0c:
                    ad:15:4f:56:57:8d:ff:50:90:78:43:fd:c4:71:3d:
                    f8:d6:5f
                Exponent: 65537 (0x10001)
        X509v3 extensions:
            X509v3 Basic Constraints: 
                CA:FALSE
            X509v3 Key Usage: 
                Digital Signature, Non Repudiation, Key Encipherment
            X509v3 Subject Key Identifier: 
                DE:CD:FB:83:03:5B:FB:DC:80:FB:F7:0A:C5:4E:BF:D8:53:FC:66:20
    Signature Algorithm: sha1WithRSAEncryption
         71:27:c9:d6:c8:71:98:90:98:cc:cb:e7:fa:ce:52:84:c9:1f:
         6f:9e:a1:5b:a6:1c:fe:fe:81:bb:83:87:09:17:ad:1d:33:3c:
         c5:a8:b0:a5:45:3a:c3:4e:c4:95:af:29:79:bc:08:cc:b4:ad:
         23:7d:87:fa:65:db:86:5c:a3:f6:09:5a:03:d4:8f:66:b9:9f:
         c1:2b:b6:60:d8:e4:69:3b:31:b3:74:0e:49:eb:e0:7c:fd:5b:
         db:f3:5c:ba:8c:80:53:ef:02:96:05:a0:f1:6e:5f:90:a6:51:
         a1:f9:e8:ea:17:c0:41:85:63:0d:42:74:a0:40:e2:ee:b9:31:
         39:e9:08:9a:b9:c8:32:ee:40:b5:78:eb:6f:5f:f3:59:22:50:
         f9:32:43:69:0e:30:f0:5d:04:13:3e:01:5f:8a:b5:b3:91:e4:
         79:de:8e:db:cc:e0:a2:4e:ba:4f:56:67:13:8c:84:87:34:ec:
         f6:6f:ea:76:f1:70:b5:88:62:65:a4:b6:91:b3:bd:0f:47:41:
         a6:36:80:69:d7:73:26:19:ba:83:44:85:b9:04:0c:bc:d6:f3:
         12:90:de:f0:ed:1b:23:63:ed:04:a5:1e:45:3e:0a:ab:0a:a7:
         fc:15:d6:b0:03:86:cf:aa:c8:27:7a:ab:86:f3:dd:51:f3:22:
         b7:e1:19:4c:9d:5e:b7:72:2a:de:90:ad:40:99:18:71:6b:dd:
         c3:5b:fa:c4:d2:d0:c3:67:66:bd:ae:f1:3b:b2:3a:37:63:99:
         28:3f:cb:21:b0:d0:99:c3:61:86:fb:d2:50:c6:b6:fd:83:f1:
         b3:ca:d3:aa:21:30:1b:9e:1e:26:13:cb:3f:24:62:ef:96:99:
         79:b2:06:13:79:03:3f:d3:9b:59:c9:ee:15:ef:94:cd:c0:b6:
         7e:7f:58:6d:5e:35:b1:40:c5:70:a7:07:9a:76:cd:c8:04:1c:
         1a:06:89:88:19:82:01:db:f2:b0:a3:39:44:dd:5f:2b:0d:59:
         9f:fa:bc:14:14:93:9e:bd:a7:fc:34:31:1f:5d:95:5f:32:ce:
         bb:97:5a:b6:67:26:d9:89:8f:de:12:ab:8c:73:7b:41:fc:18:
         12:06:41:9a:87:7d:bd:44:42:8a:e2:88:80:c3:58:31:ea:1e:
         e6:af:9c:48:30:15:83:09:fc:73:39:2d:3a:e1:48:7d:36:92:
         e6:92:a2:50:21:53:be:10:34:31:a1:8c:c4:4c:8f:36:70:77:
         0a:4c:17:47:f0:68:0b:be:98:c0:09:d0:7d:cc:aa:75:58:e3:
         4b:7f:a7:4b:d9:88:7a:61:33:06:e9:a7:b1:07:40:61:c6:80:
         30:03:b2:88:cb:94:8d:e4
-----BEGIN CERTIFICATE-----
MIIE9zCCAt+gAwIBAgIBCzANBgkqhkiG9w0BAQUFADAeMQswCQYDVQQGEwJTRTEP
MA0GA1UEAwwGU3ViIENBMB4XDTIyMDkyODIxMjU1NFoXDTM2MDcxNjIxMjU1NFow
JTELMAkGA1UEBhMCU0UxFjAUBgNVBAMMDVRlc3Qgc3ViIGNlcnQwggIiMA0GCSqG
SIb3DQEBAQUAA4ICDwAwggIKAoICAQC1Ko2c+51dnxjQZrRN4ZobYxtahSoNevON
mcgct3tATgGRBKwJXS7rBwS4TNmmLKSMAWPyLyF+HoTZ36lT9TjR4+1UiyXporvE
zzsSVV03BaiHVYcK1g+HhoDOlyKP19T6Ot2lQWe12fZ/Qdw6CFztR1QRuECIlSCT
j05AX6daFp8HzZn0ErHISNQzqjpOC//dwuc42t4EyJ+bMXGcyKp91P35EJqxTN87
dYHYnQwg5BRHfNichWQBz0so4mfU/CvD/nRim7gm/LKJd12W2LR128vjZqU7x03A
ej1QXVpnFHIUveo0Q2EAnOWWwsMCcAP1AwU8arDUmwSNK0VYf9M8YR0LyvwgC9W0
UnhM4Dnk2NhRE5UDJoKLQn6Mu07xf/6z4cEpSrJLksVfBOvBYn9oJLnyC9fOlvPt
mZ2jMNdXJJHfpfiXGGQYvA4By3uE/VxyT/yF607ALe4lFpeHCQ8KXtXdBK0+Uyiz
0QafQoLYKpUQpsehMixWnLPDhuVjp55L6OLvr5NYv7mtlaWf+ToeSxI2KjGg83T6
ShRn898KmMC/K1OwUNnMl3YyDnVxfuBjhIbDPcpaJY/pQaQgkzCwz/jRqBKAHPyR
hSs736ESnvHnyw9Lbv+PJ42JwqobSAX71DPS/QlnVRT6V1foDK0VT1ZXjf9QkHhD
/cRxPfjWXwIDAQABozkwNzAJBgNVHRMEAjAAMAsGA1UdDwQEAwIF4DAdBgNVHQ4E
FgQU3s37gwNb+9yA+/cKxU6/2FP8ZiAwDQYJKoZIhvcNAQEFBQADggIBAHEnydbI
cZiQmMzL5/rOUoTJH2+eoVumHP7+gbuDhwkXrR0zPMWosKVFOsNOxJWvKXm8CMy0
rSN9h/pl24Zco/YJWgPUj2a5n8ErtmDY5Gk7MbN0Dknr4Hz9W9vzXLqMgFPvApYF
oPFuX5CmUaH56OoXwEGFYw1CdKBA4u65MTnpCJq5yDLuQLV4629f81kiUPkyQ2kO
MPBdBBM+AV+KtbOR5HnejtvM4KJOuk9WZxOMhIc07PZv6nbxcLWIYmWktpGzvQ9H
QaY2gGnXcyYZuoNEhbkEDLzW8xKQ3vDtGyNj7QSlHkU+CqsKp/wV1rADhs+qyCd6
q4bz3VHzIrfhGUydXrdyKt6QrUCZGHFr3cNb+sTS0MNnZr2u8TuyOjdjmSg/yyGw
0JnDYYb70lDGtv2D8bPK06ohMBueHiYTyz8kYu+WmXmyBhN5Az/Tm1nJ7hXvlM3A
tn5/WG1eNbFAxXCnB5p2zcgEHBoGiYgZggHb8rCjOUTdXysNWZ/6vBQUk569p/w0
MR9dlV8yzruXWrZnJtmJj94Sq4xze0H8GBIGQZqHfb1EQoriiIDDWDHqHuavnEgw
FYMJ/HM5LTrhSH02kuaSolAhU74QNDGhjMRMjzZwdwpMF0fwaAu+mMAJ0H3MqnVY
40t/p0vZiHphMwbpp7EHQGHGgDADsojLlI3k
-----END CERTIFICATE-----
