Certificate:
    Data:
        Version: 3 (0x2)
        Serial Number: 10 (0xa)
        Signature Algorithm: sha1WithRSAEncryption
        Issuer: CN=hx509 Test Root CA, C=SE
        Validity
            Not Before: Sep 28 21:25:52 2022 GMT
            Not After : Jul 16 21:25:52 2036 GMT
        Subject: C=SE, CN=Sub CA
        Subject Public Key Info:
            Public Key Algorithm: rsaEncryption
                RSA Public-Key: (4096 bit)
                Modulus:
                    00:a5:db:d2:32:5e:35:8c:9c:8d:8f:b2:eb:3d:8e:
                    13:6a:58:03:f1:86:ef:14:39:19:8a:80:ae:54:9b:
                    c5:e8:5e:a7:e3:ff:cd:0d:54:5a:99:ad:f6:fc:71:
                    80:f0:b0:38:fa:ef:3d:c4:66:e0:4d:7e:00:f4:12:
                    3d:5b:bb:5a:b4:87:16:bc:16:9f:81:c1:da:47:9d:
                    ba:e7:37:40:de:46:e0:44:41:7a:7d:06:5a:b8:c3:
                    d3:00:d9:99:82:56:a3:4f:c5:74:b0:86:57:56:bb:
                    ff:52:fb:20:45:4b:49:a7:43:08:f7:1a:4d:4f:b2:
                    de:3a:2a:34:2c:c9:b0:a3:01:34:10:66:74:68:61:
                    2c:5d:04:1d:04:23:dc:82:ea:3b:8a:39:77:c7:d5:
                    50:43:45:8b:cc:79:7c:bc:63:fe:e5:89:a4:ff:e6:
                    91:7e:5f:22:02:a2:14:70:d1:a1:b8:8f:0d:9e:26:
                    fa:44:7a:75:2a:2d:59:64:90:eb:30:f4:59:68:05:
                    c0:9f:58:3f:7a:21:cc:99:43:10:0a:83:8c:9e:14:
                    c5:cc:c1:19:92:42:7f:45:87:aa:3c:8a:99:04:21:
                    a6:6f:d8:89:c5:5b:e1:1d:31:76:eb:9a:f1:84:7a:
                    ce:78:c2:86:a3:4e:9f:cc:a2:17:3b:72:02:8f:a8:
                    cf:a0:db:d7:54:c4:8a:74:92:98:0b:4e:da:cd:eb:
                    7f:ea:0e:b4:74:40:13:d5:f7:e8:ff:21:a8:c4:8c:
                    7e:df:0c:e5:09:55:ab:50:f4:1d:96:50:4f:13:34:
                    f5:45:4c:63:6b:fa:be:73:2f:e4:8f:37:76:80:62:
                    e1:24:e9:81:75:9e:3a:55:5b:84:97:47:94:97:0c:
                    e0:35:70:4b:62:8c:cc:bc:96:9e:81:a5:c6:31:c8:
                    91:18:96:85:43:4f:31:b8:5a:09:eb:e1:b6:d2:7b:
                    19:51:dd:e2:59:e8:ce:95:12:d3:de:b2:61:d7:06:
                    ac:55:cc:10:2f:2b:e2:84:8c:32:13:e7:5a:92:07:
                    40:c3:ff:c7:42:42:93:e0:06:4d:c6:c2:d1:94:35:
                    ed:d9:9d:dc:00:a5:0b:c0:95:a3:3a:d4:fb:db:63:
                    92:51:d2:68:69:af:d1:a2:43:b1:c3:ff:8f:9d:fe:
                    2b:ab:1b:e8:40:68:75:c5:9d:c8:55:1a:40:0b:22:
                    cf:60:d6:06:8f:3d:54:59:be:39:3c:2e:97:3a:27:
                    8d:2c:34:b4:f1:4d:10:ec:1c:5f:9a:4a:3d:c5:e1:
                    88:a6:76:7a:12:bb:20:8e:a0:13:a7:ab:96:22:bc:
                    a4:ac:65:db:57:96:35:14:eb:67:dc:81:83:3d:72:
                    61:42:61
                Exponent: 65537 (0x10001)
        X509v3 extensions:
            X509v3 Subject Key Identifier: 
                C1:79:33:60:93:A8:EC:9A:DF:CE:66:56:8C:58:F7:EE:EE:E2:C0:8D
            X509v3 Authority Key Identifier: 
                keyid:21:75:8D:4C:FA:BB:F0:8B:2B:C4:BB:39:46:DD:43:6A:20:EA:DC:68
                DirName:/CN=hx509 Test Root CA/C=SE
                serial:06:AC:C4:57:15:D8:43:AC:62:A0:06:9C:08:BA:F0:7F:A0:EE:AA:D1

            X509v3 Basic Constraints: 
                CA:TRUE
            X509v3 Key Usage: 
                Digital Signature, Non Repudiation, Key Encipherment, Certificate Sign, CRL Sign
    Signature Algorithm: sha1WithRSAEncryption
         6d:17:3d:53:b8:0a:3b:8c:77:4b:6a:78:c7:b2:c4:03:42:21:
         e4:cb:d8:a4:a9:92:fc:47:17:95:b8:d3:57:11:bd:1c:ca:44:
         be:95:88:7d:77:1a:99:d2:b5:d5:c3:25:61:d0:e8:9e:70:4e:
         74:72:d6:0a:bb:3c:37:3f:2a:c0:3d:a5:95:85:60:6f:aa:7d:
         29:46:8c:d0:c8:e9:2e:2c:94:10:38:c0:44:25:a3:62:eb:7c:
         8c:f6:77:5e:e0:8a:10:76:10:86:34:8b:20:18:72:c3:98:92:
         8f:fa:43:71:e4:e1:85:52:3d:81:cf:eb:3b:23:63:45:da:c5:
         0d:15:ec:a5:20:59:22:ec:43:e5:31:32:03:bd:00:38:a6:9b:
         6e:be:c1:0f:33:07:a8:8a:a9:ea:b0:9d:67:7f:4d:1c:1e:8e:
         26:5f:14:67:7c:62:75:54:26:88:24:61:5c:09:18:7c:76:3b:
         c2:08:95:0f:dd:45:05:76:92:40:24:98:1f:65:d0:60:1b:77:
         cf:51:72:6f:b4:ba:4f:c1:d0:db:db:8a:bd:e4:b4:81:fe:f9:
         04:12:26:c7:33:81:08:67:24:75:54:5b:c9:d1:ae:5a:03:4c:
         88:0e:91:3a:44:8d:c8:98:64:5c:21:67:70:82:7b:bb:81:d3:
         9b:91:63:80:c1:b3:59:c6:48:36:97:82:1e:1d:7b:57:36:4d:
         0f:b8:fb:9a:fa:4c:1a:77:95:18:6d:f3:62:8b:70:cd:e1:64:
         90:60:56:f0:03:48:bc:cf:e6:d3:2f:da:08:f5:ce:bc:5c:d4:
         a0:f0:45:b5:66:63:be:86:ea:d8:da:db:5c:2a:2e:17:23:2b:
         f9:e8:e9:33:1c:34:2e:e7:42:0a:b0:05:a9:8b:18:d6:52:56:
         3d:89:dd:cc:86:c5:1c:40:ce:09:f3:29:cd:c9:bd:11:26:01:
         92:98:d8:da:22:e9:bf:a6:29:30:63:cc:44:1c:53:77:2d:db:
         ad:ea:58:44:11:76:fd:83:33:a9:e3:10:10:68:60:a6:c5:68:
         ac:df:9f:1e:c2:4b:c5:28:be:f9:25:c3:42:d4:5c:03:db:7a:
         a3:b1:a5:0a:07:94:2a:80:03:d6:39:b4:5b:98:69:87:af:e0:
         99:6f:7b:76:d9:bc:18:79:8b:56:5d:b5:f3:6c:98:27:3c:24:
         23:5f:31:ec:54:34:4d:58:f2:27:cc:b8:1a:93:ab:64:5e:7a:
         ef:b9:b9:f8:09:a0:1c:df:0b:9b:9a:97:32:2d:0d:c5:a3:8d:
         05:8d:ed:e1:d4:72:06:33:ed:04:6e:bf:9b:14:6b:7b:ff:c9:
         5d:5a:3b:af:c8:85:3f:86
-----BEGIN CERTIFICATE-----
MIIFaDCCA1CgAwIBAgIBCjANBgkqhkiG9w0BAQUFADAqMRswGQYDVQQDDBJoeDUw
OSBUZXN0IFJvb3QgQ0ExCzAJBgNVBAYTAlNFMB4XDTIyMDkyODIxMjU1MloXDTM2
MDcxNjIxMjU1MlowHjELMAkGA1UEBhMCU0UxDzANBgNVBAMMBlN1YiBDQTCCAiIw
DQYJKoZIhvcNAQEBBQADggIPADCCAgoCggIBAKXb0jJeNYycjY+y6z2OE2pYA/GG
7xQ5GYqArlSbxehep+P/zQ1UWpmt9vxxgPCwOPrvPcRm4E1+APQSPVu7WrSHFrwW
n4HB2keduuc3QN5G4ERBen0GWrjD0wDZmYJWo0/FdLCGV1a7/1L7IEVLSadDCPca
TU+y3joqNCzJsKMBNBBmdGhhLF0EHQQj3ILqO4o5d8fVUENFi8x5fLxj/uWJpP/m
kX5fIgKiFHDRobiPDZ4m+kR6dSotWWSQ6zD0WWgFwJ9YP3ohzJlDEAqDjJ4UxczB
GZJCf0WHqjyKmQQhpm/YicVb4R0xduua8YR6znjChqNOn8yiFztyAo+oz6Db11TE
inSSmAtO2s3rf+oOtHRAE9X36P8hqMSMft8M5QlVq1D0HZZQTxM09UVMY2v6vnMv
5I83doBi4STpgXWeOlVbhJdHlJcM4DVwS2KMzLyWnoGlxjHIkRiWhUNPMbhaCevh
ttJ7GVHd4lnozpUS096yYdcGrFXMEC8r4oSMMhPnWpIHQMP/x0JCk+AGTcbC0ZQ1
7dmd3AClC8CVozrU+9tjklHSaGmv0aJDscP/j53+K6sb6EBodcWdyFUaQAsiz2DW
Bo89VFm+OTwulzonjSw0tPFNEOwcX5pKPcXhiKZ2ehK7II6gE6erliK8pKxl21eW
NRTrZ9yBgz1yYUJhAgMBAAGjgaQwgaEwHQYDVR0OBBYEFMF5M2CTqOya385mVoxY
9+7u4sCNMGUGA1UdIwReMFyAFCF1jUz6u/CLK8S7OUbdQ2og6txooS6kLDAqMRsw
GQYDVQQDDBJoeDUwOSBUZXN0IFJvb3QgQ0ExCzAJBgNVBAYTAlNFghQGrMRXFdhD
rGKgBpwIuvB/oO6q0TAMBgNVHRMEBTADAQH/MAsGA1UdDwQEAwIB5jANBgkqhkiG
9w0BAQUFAAOCAgEAbRc9U7gKO4x3S2p4x7LEA0Ih5MvYpKmS/EcXlbjTVxG9HMpE
vpWIfXcamdK11cMlYdDonnBOdHLWCrs8Nz8qwD2llYVgb6p9KUaM0MjpLiyUEDjA
RCWjYut8jPZ3XuCKEHYQhjSLIBhyw5iSj/pDceThhVI9gc/rOyNjRdrFDRXspSBZ
IuxD5TEyA70AOKabbr7BDzMHqIqp6rCdZ39NHB6OJl8UZ3xidVQmiCRhXAkYfHY7
wgiVD91FBXaSQCSYH2XQYBt3z1Fyb7S6T8HQ29uKveS0gf75BBImxzOBCGckdVRb
ydGuWgNMiA6ROkSNyJhkXCFncIJ7u4HTm5FjgMGzWcZINpeCHh17VzZND7j7mvpM
GneVGG3zYotwzeFkkGBW8ANIvM/m0y/aCPXOvFzUoPBFtWZjvobq2NrbXCouFyMr
+ejpMxw0LudCCrAFqYsY1lJWPYndzIbFHEDOCfMpzcm9ESYBkpjY2iLpv6YpMGPM
RBxTdy3brepYRBF2/YMzqeMQEGhgpsVorN+fHsJLxSi++SXDQtRcA9t6o7GlCgeU
KoAD1jm0W5hph6/gmW97dtm8GHmLVl2182yYJzwkI18x7FQ0TVjyJ8y4GpOrZF56
77m5+AmgHN8Lm5qXMi0NxaONBY3t4dRyBjPtBG6/mxRre//JXVo7r8iFP4Y=
-----END CERTIFICATE-----
