Certificate:
    Data:
        Version: 3 (0x2)
        Serial Number: 2 (0x2)
        Signature Algorithm: sha1WithRSAEncryption
        Issuer: CN=hx509 Test Root CA, C=SE
        Validity
            Not Before: Sep 28 21:25:47 2022 GMT
            Not After : Jul 16 21:25:47 2036 GMT
        Subject: C=SE, CN=Test cert
        Subject Public Key Info:
            Public Key Algorithm: rsaEncryption
                RSA Public-Key: (4096 bit)
                Modulus:
                    00:b9:e5:74:85:cb:59:09:c2:6c:95:a1:6b:d3:8e:
                    c8:af:70:57:dc:c5:61:91:27:ee:6f:19:00:59:c8:
                    c4:48:a0:ad:19:27:30:83:d5:73:c8:de:e1:8d:74:
                    63:01:1a:6e:e3:0a:df:e3:cc:24:26:db:9b:c0:f7:
                    88:cb:2e:b6:82:40:68:63:86:26:a2:83:c1:e0:ac:
                    f9:bb:c6:5a:9b:36:2e:b2:b1:a3:87:c1:13:e7:66:
                    a6:0a:8e:71:7b:af:19:7d:7f:66:a3:eb:63:8e:2e:
                    4b:3a:6b:0c:ae:22:02:92:ed:35:21:0a:a2:a2:b1:
                    fc:12:6a:9f:01:3b:1e:0b:b0:27:6d:3d:01:45:b4:
                    c5:62:df:3c:db:c8:35:66:3d:cc:3f:fc:94:99:94:
                    ae:aa:02:8b:80:e9:eb:a7:96:50:4b:1c:e5:3c:54:
                    56:bd:7a:01:bb:06:85:d8:88:18:a7:4b:2e:af:5d:
                    5e:19:1b:c0:ba:9a:df:34:2c:c6:04:6c:c6:c4:f7:
                    38:e3:41:c8:7a:ae:ab:f8:fa:60:63:88:f6:2a:4a:
                    a0:a9:e2:6b:9e:f8:d8:41:d1:5c:af:f5:ae:de:33:
                    ff:2a:78:34:d1:07:9f:63:54:60:3a:e8:d6:fe:b5:
                    c8:4d:7f:e5:97:93:d5:54:cb:a5:9b:da:58:e5:31:
                    31:c5:be:ef:22:04:cb:98:65:a9:29:d6:29:27:aa:
                    a9:b1:a9:f4:57:b7:1b:36:de:95:a2:ab:24:72:08:
                    59:91:86:3e:96:b0:3e:d2:08:9d:49:0a:11:18:fb:
                    2e:d0:6a:0d:30:8d:e3:89:61:a0:c6:27:d5:9a:7e:
                    9a:47:77:ea:22:70:b1:40:38:52:bc:a8:1f:31:e9:
                    2b:7f:47:14:dc:a7:b1:dd:34:5f:79:cd:58:52:25:
                    70:98:67:04:62:70:23:59:bf:93:d7:50:dd:2e:e4:
                    29:30:55:1c:15:1e:61:23:fa:6c:48:76:00:ec:7f:
                    1b:a4:5f:a5:23:54:a2:07:e2:a2:b6:62:df:b2:64:
                    8a:59:9b:1a:aa:58:82:df:58:62:4b:dc:c8:46:14:
                    8c:d9:be:78:c8:db:89:ab:45:2c:0c:12:5a:92:03:
                    42:bf:23:c2:3d:70:a1:d4:84:d3:c5:3a:03:a9:ce:
                    3a:2e:9a:14:49:1c:a7:2e:12:b7:fc:25:ab:ac:9d:
                    17:d2:36:8d:d5:e2:a4:9d:bf:21:2e:85:92:f9:10:
                    45:da:63:da:0b:2d:75:f5:32:ad:68:a9:20:c9:82:
                    3c:88:d6:d7:9a:c1:f6:5e:92:70:76:2e:10:e6:61:
                    40:c6:88:ae:ac:dc:ce:6e:1f:2f:ea:b4:f0:a5:ae:
                    02:bc:59
                Exponent: 65537 (0x10001)
        X509v3 extensions:
            X509v3 Basic Constraints: 
                CA:FALSE
            X509v3 Key Usage: 
                Digital Signature, Non Repudiation, Key Encipherment
            X509v3 Subject Key Identifier: 
                99:ED:2B:09:76:76:7D:6B:1F:83:0F:BC:ED:A6:1B:45:BC:F0:52:05
    Signature Algorithm: sha1WithRSAEncryption
         b3:b9:7f:c3:08:b0:60:6a:ef:34:4e:42:49:b0:c8:95:38:08:
         50:6d:39:f3:13:82:22:21:2b:b5:3f:87:e7:4a:c7:3f:05:78:
         96:3d:3d:9e:8b:f4:69:d8:94:d7:57:e3:c0:b6:36:11:ec:c8:
         47:78:4b:25:7a:33:5b:a4:fc:86:e0:17:51:3c:d9:90:e8:66:
         a8:78:01:06:6a:34:5e:ec:cb:76:26:fc:92:6e:7e:55:8c:9b:
         9d:ed:18:69:ec:34:9e:d3:50:a1:82:e6:07:dd:de:da:66:b7:
         67:c8:ae:83:ec:a2:b3:c4:a5:4a:0c:81:93:7b:5d:dc:d4:13:
         37:86:2f:0b:d7:82:02:86:93:54:ba:d8:12:97:50:08:a5:b4:
         66:10:56:79:22:4a:f8:b9:c3:76:20:47:05:4b:4e:c8:63:eb:
         dd:c8:73:fb:49:fb:24:7a:99:03:86:6d:04:cf:82:c9:d1:7b:
         02:25:85:cd:8d:e7:0d:7f:95:9f:26:5c:e5:42:03:1b:45:8e:
         cd:c6:58:22:b4:bf:87:02:f5:ae:c1:48:23:bc:a4:68:05:f8:
         14:1e:58:2a:9c:09:75:ff:61:d7:7a:b0:a9:a0:b1:96:0b:a4:
         c4:fb:b7:b3:b8:7a:ef:f5:c0:74:a5:bd:e6:45:88:c0:d5:09:
         4b:da:64:47:03:31:00:0a:d7:f7:b4:74:0e:82:61:f7:65:76:
         52:f9:6d:7c:bb:5f:4c:3d:c3:6f:26:a0:75:08:f5:1d:9a:09:
         67:d6:d0:54:54:b9:e7:7f:49:fe:54:24:d2:38:2e:24:03:95:
         d4:c9:13:72:d5:90:61:88:ad:bf:76:9a:07:f9:06:d1:1f:88:
         70:b0:82:b5:52:1f:ba:d9:35:84:7f:74:37:38:ae:f0:34:f7:
         3b:c8:30:f6:c2:c0:41:e2:b3:36:8b:a5:05:12:43:a9:35:5f:
         06:fb:ae:7d:d8:8a:15:4c:6e:0c:d8:85:c5:25:fa:dd:e9:07:
         5d:91:b2:e5:77:9b:dd:1b:c3:de:5c:25:a1:b5:8d:d8:41:92:
         21:b4:8c:13:6e:1f:0e:d7:6f:32:ce:e8:39:ef:13:0d:22:4d:
         9d:3a:14:c2:fd:0f:1b:0e:ef:4b:b9:9b:85:bf:49:87:6f:19:
         53:ca:39:20:15:67:c1:6f:c8:50:05:86:fc:5a:6b:4b:32:6a:
         a0:b3:7f:03:07:8d:9e:50:15:15:75:50:37:32:67:ad:bb:37:
         ac:8b:4a:9b:ec:e8:cd:ff:f2:26:e7:00:7e:9d:ce:67:d1:5d:
         ae:be:05:42:a0:07:3c:db:30:d8:9a:8c:5b:2e:9c:e7:c8:c2:
         f2:4c:3e:75:17:d1:7f:fa
-----BEGIN CERTIFICATE-----
MIIE/zCCAuegAwIBAgIBAjANBgkqhkiG9w0BAQUFADAqMRswGQYDVQQDDBJoeDUw
OSBUZXN0IFJvb3QgQ0ExCzAJBgNVBAYTAlNFMB4XDTIyMDkyODIxMjU0N1oXDTM2
MDcxNjIxMjU0N1owITELMAkGA1UEBhMCU0UxEjAQBgNVBAMMCVRlc3QgY2VydDCC
AiIwDQYJKoZIhvcNAQEBBQADggIPADCCAgoCggIBALnldIXLWQnCbJWha9OOyK9w
V9zFYZEn7m8ZAFnIxEigrRknMIPVc8je4Y10YwEabuMK3+PMJCbbm8D3iMsutoJA
aGOGJqKDweCs+bvGWps2LrKxo4fBE+dmpgqOcXuvGX1/ZqPrY44uSzprDK4iApLt
NSEKoqKx/BJqnwE7HguwJ209AUW0xWLfPNvINWY9zD/8lJmUrqoCi4Dp66eWUEsc
5TxUVr16AbsGhdiIGKdLLq9dXhkbwLqa3zQsxgRsxsT3OONByHquq/j6YGOI9ipK
oKnia5742EHRXK/1rt4z/yp4NNEHn2NUYDro1v61yE1/5ZeT1VTLpZvaWOUxMcW+
7yIEy5hlqSnWKSeqqbGp9Fe3GzbelaKrJHIIWZGGPpawPtIInUkKERj7LtBqDTCN
44lhoMYn1Zp+mkd36iJwsUA4UryoHzHpK39HFNynsd00X3nNWFIlcJhnBGJwI1m/
k9dQ3S7kKTBVHBUeYSP6bEh2AOx/G6RfpSNUogfiorZi37JkilmbGqpYgt9YYkvc
yEYUjNm+eMjbiatFLAwSWpIDQr8jwj1wodSE08U6A6nOOi6aFEkcpy4St/wlq6yd
F9I2jdXipJ2/IS6FkvkQRdpj2gstdfUyrWipIMmCPIjW15rB9l6ScHYuEOZhQMaI
rqzczm4fL+q08KWuArxZAgMBAAGjOTA3MAkGA1UdEwQCMAAwCwYDVR0PBAQDAgXg
MB0GA1UdDgQWBBSZ7SsJdnZ9ax+DD7ztphtFvPBSBTANBgkqhkiG9w0BAQUFAAOC
AgEAs7l/wwiwYGrvNE5CSbDIlTgIUG058xOCIiErtT+H50rHPwV4lj09nov0adiU
11fjwLY2EezIR3hLJXozW6T8huAXUTzZkOhmqHgBBmo0XuzLdib8km5+VYybne0Y
aew0ntNQoYLmB93e2ma3Z8iug+yis8SlSgyBk3td3NQTN4YvC9eCAoaTVLrYEpdQ
CKW0ZhBWeSJK+LnDdiBHBUtOyGPr3chz+0n7JHqZA4ZtBM+CydF7AiWFzY3nDX+V
nyZc5UIDG0WOzcZYIrS/hwL1rsFII7ykaAX4FB5YKpwJdf9h13qwqaCxlgukxPu3
s7h67/XAdKW95kWIwNUJS9pkRwMxAArX97R0DoJh92V2UvltfLtfTD3DbyagdQj1
HZoJZ9bQVFS5539J/lQk0jguJAOV1MkTctWQYYitv3aaB/kG0R+IcLCCtVIfutk1
hH90Nziu8DT3O8gw9sLAQeKzNoulBRJDqTVfBvuufdiKFUxuDNiFxSX63ekHXZGy
5Xeb3RvD3lwlobWN2EGSIbSME24fDtdvMs7oOe8TDSJNnToUwv0PGw7vS7mbhb9J
h28ZU8o5IBVnwW/IUAWG/FprSzJqoLN/AweNnlAVFXVQNzJnrbs3rItKm+zozf/y
JucAfp3OZ9Fdrr4FQqAHPNsw2JqMWy6c58jC8kw+dRfRf/o=
-----END CERTIFICATE-----
-----BEGIN PRIVATE KEY-----
MIIJQwIBADANBgkqhkiG9w0BAQEFAASCCS0wggkpAgEAAoICAQC55XSFy1kJwmyV
oWvTjsivcFfcxWGRJ+5vGQBZyMRIoK0ZJzCD1XPI3uGNdGMBGm7jCt/jzCQm25vA
94jLLraCQGhjhiaig8HgrPm7xlqbNi6ysaOHwRPnZqYKjnF7rxl9f2aj62OOLks6
awyuIgKS7TUhCqKisfwSap8BOx4LsCdtPQFFtMVi3zzbyDVmPcw//JSZlK6qAouA
6eunllBLHOU8VFa9egG7BoXYiBinSy6vXV4ZG8C6mt80LMYEbMbE9zjjQch6rqv4
+mBjiPYqSqCp4mue+NhB0Vyv9a7eM/8qeDTRB59jVGA66Nb+tchNf+WXk9VUy6Wb
2ljlMTHFvu8iBMuYZakp1iknqqmxqfRXtxs23pWiqyRyCFmRhj6WsD7SCJ1JChEY
+y7Qag0wjeOJYaDGJ9WafppHd+oicLFAOFK8qB8x6St/RxTcp7HdNF95zVhSJXCY
ZwRicCNZv5PXUN0u5CkwVRwVHmEj+mxIdgDsfxukX6UjVKIH4qK2Yt+yZIpZmxqq
WILfWGJL3MhGFIzZvnjI24mrRSwMElqSA0K/I8I9cKHUhNPFOgOpzjoumhRJHKcu
Erf8JausnRfSNo3V4qSdvyEuhZL5EEXaY9oLLXX1Mq1oqSDJgjyI1teawfZeknB2
LhDmYUDGiK6s3M5uHy/qtPClrgK8WQIDAQABAoICAQClZ8YTWklCRs2pIfU4S37D
o5l6JeJXbwlXrw5B1ULZQKZkkBs54o5gd/iHjbyd+bAass1d+oFcVeEzhM0hxNG9
+aMokvADgGrdB+w5qRdrrX1FoIvaOfEE36/0CqRtIfLzWI2yYrq1gvmK5D9nHXne
09OHL9hgHTAmDtqmFLz6N2YNa8+a/2r2O54CDRV+gJQhhxONx97WBOet7/Wvqy6M
dwx9bqmzdEDf8cDcVtRg3qOOg+w7ORd2smDSItiajVMbZMIoa5r/ljYMlnN3fSFT
pg1ou794twBtJ+Vp55gNvIRZfJW6PCcVEbmCETVjc8njM17NTUvvZDhaAaFBZVFb
lvzwDLuE3icmz3YiHQsUQg3irPkPjtOV3ARRJPKELJXnIekdwC0ik3dnJlTXKCEy
LYEXlWQfb+A9PUASZOtMy3aHxPErhe9zskVzlDQzGG8LOvX/dsS2SnRLNBnC+jLH
T+F7MkfkGZ/hAFXlm10K/H3BIB8EMWirTaFconf+VfdEYoN+cYh/tNSGRntEmBDf
JS01tiN+zLbW600Ukftn8eFai8giPI08GfNmz8FggSWnRBLkySoVgTeVJ0E3kT9u
i9gxCvCliYSrmiWRD7IFa+pm6fuQjKoG+7Ipx2alvE3Zkj1pqnCOuiov4n2VKp0U
7ULJlun8mSJjgQb/C/VrBQKCAQEA23EMjaHVGIBUMxp96mPVZFzy/S2aV33iQeK8
vnhnY+EH8T4bChlXn1X9IkWx6JHBmHXRztmCTnTn2/SQQP1VMWS+sOaC8kt65Qaj
ENKCzVlBrFqPs31vEhvJBftvWLFl5+cRqS1HHE1AoXEz+qUyxFJjy6pjgbGY1tKa
SyG/uhxUCEg4ae6bKgQMtjMitrfvq6TXpvGquX4AL5BhKybjXAEBY810PrHOoVdi
mj6hxMniFCb7H4lsjfNTQx9MpQyR7mtZPKUpmb6QnhZ39D9GzGNToRuQOQoVPBRs
TQwRlakGlrt5D2MNUKmg77RN/Gg9oA9lS3QXQKwzH5ic5Mz/4wKCAQEA2N28N1Zb
+1dSS6sMlaul5BzpKuC7oc9wcVwqpeSneKBQkeXV8XEyyYtEYvz29JtMwbmkvNma
bkPatL8Q0Qp2aF8H+4ltJOxL9LvsnEk/HCqTDLRijIGTFA62/qPHgt86isvcyZrL
zgFfU/fWk2t82W5/HlUp/ZlnADwRWtsPrgi4axuYxn+E1njrH6n/O3Y8SxLVN2ny
7mPGVwr6TW/nmNjZg/pAR+je6z/IUBb1AiJUsbhN/YEONmmvzUN/FPsIqyQOFv6i
c0DgqHwJz8e4ygVT1pbw0bgwhdmxnID5LuY4Bs5Thp7rcoL3V8qgO9mYRuRgQ29R
P9R4YbNvl/SPkwKCAQEAoETzzymIEon/dQd/OUZK3y9HxQOeexIUwtwPz+juUjNT
cq1SYFDb/yJ1a6eNZXe29lvurW2MzzJw+OOoy956b0XORDNHJiFck5MCW9Hz+Hid
D31hAM225nnmmvjlfNirvfC0pGPOUOxXLNIaDZDEAEDQZDqAzINiRluwlvkCJ7Jy
6U2d7jh3mPs2MYgtbVfvsuQFIQfWEf3lstd3MGYJnfOaCUNQCE4ixRGmkVL3IVv1
Q5SoyoK7Bv3VLOvaNZ11o7VBippyRLi6tMtiNsBUPAi7Vqpj7lTf525fHvKWkUDO
8B3iMAu++M+7G/cLEjMr9w/ngnE6XmCmQghbZnwW0wKCAQAE6EeZDPg54Mj4817u
iBrR5aGVGc7FI5eMySQh6uGrRh1sn8HOm9wlWWRrxQOll1oOTDAhId9vvVNWobg0
ssLpK7VXiM2Sd1JksFfzVWj7Ly9yqyZLvabhXk/fxT7/hCOj/mb5nOoduEQ69zHA
1j7WAL0Zp52yomUFSVavMqPRMVtS+SXk3//WhpfzeHpREyTcIgn3HgukP1e+on31
gKHCAK4zYVdRCUD6G9Bhl5Nlv/cgqmYBZYk3y/5xa6SVifSxQria5powd3hd96iV
LhTNZX93LKU4aa2XacyuGPEKkaUU6lhThIcZaUNFlk037X2XpRVUkVFKW3l55ICS
9LLHAoIBABdSRR85x1ZpSRBJlS8xhKAGR+Px7ac3leHORe/Rdaty9ajIfcLTMlcR
LgETHn9ksEpYZJ++udMnumimNQ7nAotl/gMoopH01Owtxpn5FenVzWK5SUAQcKRg
gCcKfHgYeB+IOEdDf+icWqSMSON06jaQsb1tShY3eWWe61IWquALIlyTmEgErmR+
YZmKqLCZe2CGM6eGBfh4+ekf/LmtH6oJwwQCVfPyB7tlwtBFnhBY1b7GeD+DGk6d
ic5ogq0FHGSzVunhZoRWIdz2UDI3/CGYKvuR/q9Lj9g9NifRm9tDPMiNX8iYdP9D
cDv4uL6P7zCB2vPraVr0G+9t6p3pa2c=
-----END PRIVATE KEY-----
