Certificate:
    Data:
        Version: 3 (0x2)
        Serial Number: 4 (0x4)
        Signature Algorithm: sha1WithRSAEncryption
        Issuer: CN=hx509 Test Root CA, C=SE
        Validity
            Not Before: Sep 28 21:25:47 2022 GMT
            Not After : Jul 16 21:25:47 2036 GMT
        Subject: C=SE, CN=Test cert KeyEncipherment
        Subject Public Key Info:
            Public Key Algorithm: rsaEncryption
                RSA Public-Key: (4096 bit)
                Modulus:
                    00:b4:c7:42:29:e8:d5:c9:5d:d9:b4:f5:e2:57:b9:
                    39:e0:97:2c:75:57:1b:01:e1:b2:ac:1b:c9:cf:af:
                    69:8b:ce:e2:a2:c5:b4:1f:d8:68:83:b5:3a:32:5c:
                    4f:fd:ca:d9:9e:2b:d8:fa:3e:56:9e:6b:7c:99:fe:
                    df:87:1f:44:43:64:c2:93:44:0a:11:ee:01:a0:28:
                    97:21:a4:3c:87:4a:54:96:d8:76:49:eb:df:71:a5:
                    bd:aa:eb:5e:7a:65:a8:5d:da:0b:b6:cc:ab:e3:1f:
                    6a:1e:a7:0e:f1:d0:f1:b0:b0:f8:04:93:e0:3e:6f:
                    02:94:1e:ed:f5:93:c3:b2:c5:fb:b5:d6:2b:b1:d2:
                    a8:8d:21:25:1a:f4:95:e0:a3:2f:a9:09:16:a1:44:
                    1a:a8:2e:f3:51:3c:da:dc:05:48:d3:ab:10:e1:43:
                    aa:17:aa:2a:0c:cc:b6:48:b0:28:f4:ed:4c:14:35:
                    2e:a2:9e:71:ba:ad:29:cb:cb:50:5f:b9:cc:72:04:
                    a6:51:db:d0:89:c0:f0:19:32:cd:32:38:05:7e:57:
                    c7:03:70:cc:55:c1:0c:6b:6c:d9:d6:c4:64:ea:5f:
                    f5:94:fd:8d:3e:b6:8b:7e:6a:bc:2f:ac:0d:6d:10:
                    3a:96:60:49:38:10:2f:6a:42:e8:65:39:67:c8:5d:
                    88:44:54:cb:76:1b:6f:a8:14:75:33:70:af:a2:2b:
                    42:82:8d:95:bc:c7:c0:99:7f:c3:ae:69:19:ff:17:
                    64:51:0f:1d:d0:34:48:44:d2:b1:77:31:d4:b8:7d:
                    03:3c:d6:cc:dd:f0:b5:4c:77:23:f9:3d:ca:e2:f1:
                    3a:88:76:b4:a7:45:fb:59:80:db:8b:95:5b:80:95:
                    fc:80:f6:de:04:95:5d:a2:5e:a0:2b:84:9e:15:fc:
                    c7:4a:78:ce:eb:78:9c:5e:b9:79:90:69:23:53:f8:
                    f8:8d:57:23:f5:c3:b1:5f:11:c5:9c:2b:89:a2:1a:
                    94:88:00:ab:50:6d:30:d4:d0:bd:f2:00:28:47:9f:
                    2b:a2:90:36:87:79:88:79:8b:57:6c:1f:15:9b:a8:
                    46:2e:0a:9a:1e:6b:91:cf:bf:9a:50:a5:86:13:ad:
                    3e:b8:e5:16:ff:d1:d0:21:64:ea:64:99:2a:a4:9b:
                    83:1c:b1:49:df:0d:fb:e7:b7:fb:aa:aa:27:e0:af:
                    77:d7:92:c9:21:47:5d:93:24:c9:a6:74:8e:49:74:
                    ec:84:35:0e:ca:eb:a9:50:cb:d4:32:30:dc:9e:db:
                    5b:e4:06:43:99:84:db:9d:3a:dd:6a:43:c7:c2:70:
                    0d:f7:81:76:02:20:5c:1a:6d:9d:8f:9b:16:01:c9:
                    cd:ce:e3
                Exponent: 65537 (0x10001)
        X509v3 extensions:
            X509v3 Basic Constraints: 
                CA:FALSE
            X509v3 Key Usage: 
                Non Repudiation, Key Encipherment
            X509v3 Subject Key Identifier: 
                BC:B5:56:0F:3B:F9:D1:EA:06:8C:F7:80:73:3E:92:7D:4E:C4:8B:08
    Signature Algorithm: sha1WithRSAEncryption
         ae:b6:e2:bc:bb:e3:2c:de:c6:e6:c3:9e:2e:b9:32:4e:50:ba:
         07:bc:4c:a4:6b:fa:1b:6b:eb:80:1a:fa:1a:b0:76:54:99:b2:
         8b:f8:7f:c9:d6:f1:1f:ad:31:92:5c:cf:12:a8:61:2a:b4:54:
         86:9c:a4:85:5d:c6:7c:bf:c7:69:c1:6b:4b:6e:28:8f:f4:88:
         25:08:ed:c4:07:f0:3b:1a:cd:70:a4:eb:96:46:56:d5:90:6d:
         5b:90:9c:7c:d9:67:26:0a:1c:46:b2:9f:8e:ce:77:1d:b1:5a:
         f0:c3:ab:39:36:73:b5:90:14:3a:c7:7f:7e:a5:61:22:1e:54:
         51:15:92:c2:08:c1:37:87:52:14:4e:f3:4a:a2:f6:ef:4e:d5:
         11:8b:fc:c3:1d:c5:72:4c:f0:3e:5a:1d:cb:6f:2f:4e:69:f9:
         1c:5c:68:96:74:92:08:b4:99:4b:00:8c:df:5d:f7:fe:5d:39:
         d2:ba:ef:5f:28:67:3d:e9:b8:0a:90:71:82:96:0d:1b:86:c3:
         64:1c:9a:83:fa:7a:ef:0b:a1:13:33:cf:34:ab:e9:99:6e:08:
         7b:17:b3:f1:0f:92:85:a1:3d:47:7c:8a:67:ab:56:00:5b:69:
         9e:f6:6a:fd:61:43:9d:cd:dd:90:fd:4d:52:03:a8:75:ce:b5:
         8b:a6:bc:63:64:ae:58:b0:4e:69:82:54:6d:82:ff:53:63:98:
         55:33:d7:10:ec:0c:3d:c6:5d:bd:91:7b:cf:ca:df:bf:34:bd:
         f1:48:04:a0:e8:ab:98:9f:a1:e0:a3:7f:fe:f1:b0:07:b0:6a:
         52:0c:49:81:52:54:67:5f:6e:ce:fc:ca:22:c3:2e:eb:2c:73:
         19:53:a5:e8:db:29:98:59:b0:e9:8e:54:b1:0c:5b:40:a2:e7:
         cb:51:4b:99:07:bc:4e:4d:09:a1:4f:90:fa:a6:1d:5f:88:40:
         51:f8:6e:73:db:90:ff:64:99:b1:52:b7:33:39:6a:dc:13:cb:
         2e:2b:fa:e4:bb:68:9d:ff:91:52:35:1d:f3:24:cf:cd:2e:b2:
         54:12:b4:27:a8:f2:86:ba:ff:cc:44:b3:a9:cb:b4:9b:05:a8:
         ab:cd:0b:80:3f:16:da:a7:29:62:f3:7e:db:82:35:1d:fd:d7:
         76:1a:a1:fd:75:ac:47:53:3b:04:14:5a:68:2c:f8:20:74:59:
         ac:48:c1:a0:e1:bd:35:03:b8:1e:2e:d1:29:cf:5f:73:1c:24:
         06:7f:07:80:7a:09:6e:60:bb:6a:2f:37:53:00:f6:a5:ae:e4:
         68:32:05:44:f8:cd:6e:72:6a:6c:a5:61:78:54:09:db:c1:0e:
         65:dd:8f:4c:cc:36:5c:d6
-----BEGIN CERTIFICATE-----
MIIFDzCCAvegAwIBAgIBBDANBgkqhkiG9w0BAQUFADAqMRswGQYDVQQDDBJoeDUw
OSBUZXN0IFJvb3QgQ0ExCzAJBgNVBAYTAlNFMB4XDTIyMDkyODIxMjU0N1oXDTM2
MDcxNjIxMjU0N1owMTELMAkGA1UEBhMCU0UxIjAgBgNVBAMMGVRlc3QgY2VydCBL
ZXlFbmNpcGhlcm1lbnQwggIiMA0GCSqGSIb3DQEBAQUAA4ICDwAwggIKAoICAQC0
x0Ip6NXJXdm09eJXuTnglyx1VxsB4bKsG8nPr2mLzuKixbQf2GiDtToyXE/9ytme
K9j6Plaea3yZ/t+HH0RDZMKTRAoR7gGgKJchpDyHSlSW2HZJ699xpb2q6156Zahd
2gu2zKvjH2oepw7x0PGwsPgEk+A+bwKUHu31k8Oyxfu11iux0qiNISUa9JXgoy+p
CRahRBqoLvNRPNrcBUjTqxDhQ6oXqioMzLZIsCj07UwUNS6innG6rSnLy1Bfucxy
BKZR29CJwPAZMs0yOAV+V8cDcMxVwQxrbNnWxGTqX/WU/Y0+tot+arwvrA1tEDqW
YEk4EC9qQuhlOWfIXYhEVMt2G2+oFHUzcK+iK0KCjZW8x8CZf8OuaRn/F2RRDx3Q
NEhE0rF3MdS4fQM81szd8LVMdyP5Pcri8TqIdrSnRftZgNuLlVuAlfyA9t4ElV2i
XqArhJ4V/MdKeM7reJxeuXmQaSNT+PiNVyP1w7FfEcWcK4miGpSIAKtQbTDU0L3y
AChHnyuikDaHeYh5i1dsHxWbqEYuCpoea5HPv5pQpYYTrT645Rb/0dAhZOpkmSqk
m4McsUnfDfvnt/uqqifgr3fXkskhR12TJMmmdI5JdOyENQ7K66lQy9QyMNye21vk
BkOZhNudOt1qQ8fCcA33gXYCIFwabZ2PmxYByc3O4wIDAQABozkwNzAJBgNVHRME
AjAAMAsGA1UdDwQEAwIFYDAdBgNVHQ4EFgQUvLVWDzv50eoGjPeAcz6SfU7Eiwgw
DQYJKoZIhvcNAQEFBQADggIBAK624ry74yzexubDni65Mk5Quge8TKRr+htr64Aa
+hqwdlSZsov4f8nW8R+tMZJczxKoYSq0VIacpIVdxny/x2nBa0tuKI/0iCUI7cQH
8DsazXCk65ZGVtWQbVuQnHzZZyYKHEayn47Odx2xWvDDqzk2c7WQFDrHf36lYSIe
VFEVksIIwTeHUhRO80qi9u9O1RGL/MMdxXJM8D5aHctvL05p+RxcaJZ0kgi0mUsA
jN9d9/5dOdK6718oZz3puAqQcYKWDRuGw2QcmoP6eu8LoRMzzzSr6ZluCHsXs/EP
koWhPUd8imerVgBbaZ72av1hQ53N3ZD9TVIDqHXOtYumvGNkrliwTmmCVG2C/1Nj
mFUz1xDsDD3GXb2Re8/K3780vfFIBKDoq5ifoeCjf/7xsAewalIMSYFSVGdfbs78
yiLDLusscxlTpejbKZhZsOmOVLEMW0Ci58tRS5kHvE5NCaFPkPqmHV+IQFH4bnPb
kP9kmbFStzM5atwTyy4r+uS7aJ3/kVI1HfMkz80uslQStCeo8oa6/8xEs6nLtJsF
qKvNC4A/FtqnKWLzftuCNR3913Yaof11rEdTOwQUWmgs+CB0WaxIwaDhvTUDuB4u
0SnPX3McJAZ/B4B6CW5gu2ovN1MA9qWu5GgyBUT4zW5yamylYXhUCdvBDmXdj0zM
NlzW
-----END CERTIFICATE-----
