Certificate:
    Data:
        Version: 3 (0x2)
        Serial Number: 5 (0x5)
        Signature Algorithm: sha1WithRSAEncryption
        Issuer: CN=hx509 Test Root CA, C=SE
        Validity
            Not Before: Sep 28 21:25:48 2022 GMT
            Not After : Jul 16 21:25:48 2036 GMT
        Subject: C=SE, CN=Test cert DigitalSignature
        Subject Public Key Info:
            Public Key Algorithm: rsaEncryption
                RSA Public-Key: (4096 bit)
                Modulus:
                    00:b0:1b:53:d2:78:f0:86:c6:90:56:00:a0:b8:e2:
                    f5:19:38:4a:6a:04:1f:75:e1:1a:7c:e0:8f:ab:75:
                    90:89:8f:0a:d8:00:7e:4c:f7:0d:1d:c9:05:c3:f6:
                    60:09:4d:69:d0:f4:6a:9b:17:44:a1:30:09:6e:35:
                    63:f4:00:be:c6:63:fd:44:ee:83:fc:64:0d:5f:8c:
                    6a:4d:24:1c:b9:04:ed:e3:df:c4:bb:6f:5f:c9:4f:
                    32:00:6c:e0:87:09:cd:42:40:c9:55:ed:47:69:a1:
                    3e:55:16:78:43:d9:83:9d:45:a7:5e:19:5c:15:d8:
                    8b:92:08:63:e3:95:30:bc:b4:03:c2:5a:9f:ba:10:
                    88:ce:a2:a2:fe:7a:67:28:dc:27:d2:f5:a9:01:6c:
                    e8:6c:ad:27:5f:52:d5:99:82:67:7f:38:af:93:c5:
                    6f:2a:31:a7:fb:a1:27:b9:5f:d2:65:24:18:e1:bd:
                    40:8c:d7:05:f7:d1:9e:01:02:5a:cf:55:7c:6f:cf:
                    a0:a5:35:2d:0c:37:98:19:47:db:b5:84:9f:97:87:
                    bd:5d:f2:78:0a:f9:66:b0:48:e7:19:64:e9:c2:00:
                    7a:6c:67:09:d8:48:90:af:2f:63:88:a9:2a:fd:33:
                    8d:0c:18:66:87:ba:e5:2a:13:46:25:fe:cc:55:03:
                    2f:ad:23:4b:bf:29:3a:25:33:b6:5e:a2:d4:a3:d4:
                    1c:52:bc:46:26:d7:74:72:8c:1f:0d:e1:3b:b5:19:
                    99:5d:b9:f4:75:8e:7a:e7:71:f7:86:32:b6:3d:80:
                    12:cb:6b:ea:f8:e2:e1:e9:79:6e:9d:98:db:25:a0:
                    74:f2:f2:b5:9a:24:5b:32:47:bb:5c:b3:8f:22:84:
                    cb:a2:4c:45:d7:1e:ba:e2:52:34:40:8b:ee:08:25:
                    c1:28:49:fb:64:19:c1:1f:80:e8:63:67:e8:d8:c1:
                    a1:82:2e:a1:ed:e5:ba:25:2f:ea:43:50:dd:ae:98:
                    b2:3f:c7:01:e0:7c:2d:e1:ee:f0:f9:cb:d7:d6:15:
                    5f:62:41:81:64:de:e5:1a:8d:47:1b:e8:99:7d:de:
                    bc:61:6e:4f:fe:71:f1:7c:85:ab:f9:f0:48:45:a5:
                    a6:90:40:f7:98:df:e0:ab:51:15:ca:79:2f:d1:3d:
                    a3:25:0d:cc:d0:3a:e9:9f:22:6e:5f:61:b2:46:c9:
                    fe:aa:4d:fb:d0:cc:23:cf:06:9c:74:27:f0:3f:77:
                    da:45:13:8f:06:37:6c:fb:a0:78:7f:0f:61:bd:13:
                    68:ee:d1:7d:5a:78:2a:a1:09:bc:e3:84:b5:4f:a7:
                    9e:f3:13:47:94:33:b2:78:24:5a:f9:71:23:7f:68:
                    7f:5b:85
                Exponent: 65537 (0x10001)
        X509v3 extensions:
            X509v3 Basic Constraints: 
                CA:FALSE
            X509v3 Key Usage: 
                Digital Signature, Non Repudiation
            X509v3 Subject Key Identifier: 
                F5:91:1B:12:38:2C:12:AD:CD:90:C9:DA:1B:00:9A:C1:B4:42:A9:10
    Signature Algorithm: sha1WithRSAEncryption
         d8:54:d8:45:a4:a1:72:a6:1b:5a:43:77:39:f6:c2:ad:69:21:
         ba:a5:d1:b8:35:2d:c0:c7:92:a2:5f:cd:74:a6:67:0a:70:6f:
         08:2e:38:66:8c:15:95:6c:aa:e7:93:88:9a:69:e7:e2:e6:55:
         a7:d3:80:28:8a:c6:a8:c7:59:2a:52:7b:6e:28:bd:13:bd:59:
         5d:ca:22:1a:4a:82:c9:0f:e8:0e:84:ba:72:fa:56:0b:d4:97:
         85:15:18:f7:12:59:4a:14:83:05:de:3e:d9:98:f8:29:19:49:
         94:ae:d7:dd:e4:f0:07:6b:e5:a2:53:bd:7e:ed:62:14:35:64:
         85:ee:ac:76:42:89:48:21:d0:7e:24:b2:9e:c1:b7:eb:4b:89:
         53:04:2d:40:52:89:c7:b0:ae:98:d7:3e:fa:64:30:9f:ba:b6:
         15:21:36:78:2b:50:ac:9e:11:50:4d:d1:a9:de:ea:86:61:bf:
         b2:51:ca:52:1f:57:d3:ed:96:2c:19:99:ee:71:29:de:4d:7e:
         ab:aa:e8:6c:a3:2b:ad:42:36:c2:44:8d:f8:1c:54:3e:79:9e:
         7d:b8:39:4d:21:41:62:3b:1c:c8:56:5b:d6:05:ae:f0:b6:10:
         ac:82:f4:99:cd:db:00:9a:c7:e0:da:c3:cd:2b:fe:e6:c5:c6:
         0a:e2:3a:e2:83:fd:57:63:dc:c2:e6:a7:ab:86:cc:8f:f8:e9:
         8e:b1:2d:06:67:05:05:88:4e:fe:d5:14:3e:90:95:09:7b:a6:
         f6:7c:91:8c:f9:70:58:8d:cb:f4:8b:28:4c:94:95:bb:6f:4a:
         87:1c:35:fc:7b:d2:ca:d6:ef:74:b9:d1:6a:c0:2d:4f:d6:99:
         af:e9:ac:8a:d7:27:90:c2:71:22:ce:00:ae:be:df:51:2d:51:
         22:6d:2d:bb:14:43:16:99:1d:e5:a6:4d:a4:92:1b:cb:00:c5:
         1b:df:59:0b:b6:91:80:5f:66:8e:14:df:9c:cd:35:2b:13:a1:
         d7:bf:43:7c:6d:03:60:de:8e:ad:20:36:ed:cd:7c:1a:54:44:
         ac:d2:da:be:e4:59:72:58:1e:7d:a9:47:39:4a:1c:b9:71:85:
         7f:88:0e:3a:e4:eb:b1:b6:76:d5:c6:cc:5a:9e:95:60:d0:98:
         94:3c:f3:86:18:42:eb:6b:65:e5:c1:70:8d:c0:bc:eb:e9:96:
         a0:0e:76:d7:9f:90:bc:4f:33:b1:97:a4:c8:c5:91:ed:1c:a6:
         4d:be:a0:c3:83:2c:d3:8c:fb:ff:d0:02:3a:05:8d:d9:49:85:
         81:84:fc:62:3b:e0:90:1a:b7:a9:68:cc:76:df:ed:4b:04:b7:
         4a:3e:c7:97:9d:73:4b:d0
-----BEGIN CERTIFICATE-----
MIIFEDCCAvigAwIBAgIBBTANBgkqhkiG9w0BAQUFADAqMRswGQYDVQQDDBJoeDUw
OSBUZXN0IFJvb3QgQ0ExCzAJBgNVBAYTAlNFMB4XDTIyMDkyODIxMjU0OFoXDTM2
MDcxNjIxMjU0OFowMjELMAkGA1UEBhMCU0UxIzAhBgNVBAMMGlRlc3QgY2VydCBE
aWdpdGFsU2lnbmF0dXJlMIICIjANBgkqhkiG9w0BAQEFAAOCAg8AMIICCgKCAgEA
sBtT0njwhsaQVgCguOL1GThKagQfdeEafOCPq3WQiY8K2AB+TPcNHckFw/ZgCU1p
0PRqmxdEoTAJbjVj9AC+xmP9RO6D/GQNX4xqTSQcuQTt49/Eu29fyU8yAGzghwnN
QkDJVe1HaaE+VRZ4Q9mDnUWnXhlcFdiLkghj45UwvLQDwlqfuhCIzqKi/npnKNwn
0vWpAWzobK0nX1LVmYJnfzivk8VvKjGn+6EnuV/SZSQY4b1AjNcF99GeAQJaz1V8
b8+gpTUtDDeYGUfbtYSfl4e9XfJ4CvlmsEjnGWTpwgB6bGcJ2EiQry9jiKkq/TON
DBhmh7rlKhNGJf7MVQMvrSNLvyk6JTO2XqLUo9QcUrxGJtd0cowfDeE7tRmZXbn0
dY5653H3hjK2PYASy2vq+OLh6XlunZjbJaB08vK1miRbMke7XLOPIoTLokxF1x66
4lI0QIvuCCXBKEn7ZBnBH4DoY2fo2MGhgi6h7eW6JS/qQ1DdrpiyP8cB4Hwt4e7w
+cvX1hVfYkGBZN7lGo1HG+iZfd68YW5P/nHxfIWr+fBIRaWmkED3mN/gq1EVynkv
0T2jJQ3M0DrpnyJuX2GyRsn+qk370MwjzwacdCfwP3faRROPBjds+6B4fw9hvRNo
7tF9WngqoQm844S1T6ee8xNHlDOyeCRa+XEjf2h/W4UCAwEAAaM5MDcwCQYDVR0T
BAIwADALBgNVHQ8EBAMCBsAwHQYDVR0OBBYEFPWRGxI4LBKtzZDJ2hsAmsG0QqkQ
MA0GCSqGSIb3DQEBBQUAA4ICAQDYVNhFpKFyphtaQ3c59sKtaSG6pdG4NS3Ax5Ki
X810pmcKcG8ILjhmjBWVbKrnk4iaaefi5lWn04Aoisaox1kqUntuKL0TvVldyiIa
SoLJD+gOhLpy+lYL1JeFFRj3EllKFIMF3j7ZmPgpGUmUrtfd5PAHa+WiU71+7WIU
NWSF7qx2QolIIdB+JLKewbfrS4lTBC1AUonHsK6Y1z76ZDCfurYVITZ4K1CsnhFQ
TdGp3uqGYb+yUcpSH1fT7ZYsGZnucSneTX6rquhsoyutQjbCRI34HFQ+eZ59uDlN
IUFiOxzIVlvWBa7wthCsgvSZzdsAmsfg2sPNK/7mxcYK4jrig/1XY9zC5qerhsyP
+OmOsS0GZwUFiE7+1RQ+kJUJe6b2fJGM+XBYjcv0iyhMlJW7b0qHHDX8e9LK1u90
udFqwC1P1pmv6ayK1yeQwnEizgCuvt9RLVEibS27FEMWmR3lpk2kkhvLAMUb31kL
tpGAX2aOFN+czTUrE6HXv0N8bQNg3o6tIDbtzXwaVESs0tq+5FlyWB59qUc5Shy5
cYV/iA465OuxtnbVxsxanpVg0JiUPPOGGELra2XlwXCNwLzr6ZagDnbXn5C8TzOx
l6TIxZHtHKZNvqDDgyzTjPv/0AI6BY3ZSYWBhPxiO+CQGrepaMx23+1LBLdKPseX
nXNL0A==
-----END CERTIFICATE-----
